

Microchip Technology PIC LITE Macro Assembler V1.37 build -260352376 
                                                                                               Mon Mar 06 09:24:13 2017

Microchip Technology Omniscient Code Generator v1.37 (Free mode) build 201603110536
     1                           	processor	16F877A
     2                           	opt	pw 120
     3                           	opt	lm
     4                           	psect	idataBANK1,global,class=CODE,delta=2
     5                           	psect	strings,global,class=STRING,delta=2
     6                           	psect	cinit,global,class=CODE,merge=1,delta=2
     7                           	psect	dataBANK1,global,class=BANK1,space=1,delta=1
     8                           	psect	inittext,global,class=CODE,delta=2
     9                           	psect	cstackCOMMON,global,class=COMMON,space=1,delta=1
    10                           	psect	cstackBANK0,global,class=BANK0,space=1,delta=1
    11                           	psect	maintext,global,class=CODE,split=1,delta=2
    12                           	psect	text1,local,class=CODE,merge=1,delta=2
    13                           	psect	text2,local,class=CODE,merge=1,delta=2
    14                           	psect	text3,local,class=CODE,merge=1,delta=2
    15                           	psect	text4,local,class=CODE,merge=1,delta=2
    16                           	psect	text5,local,class=CODE,merge=1,delta=2
    17                           	psect	text6,local,class=CODE,merge=1,delta=2
    18                           	psect	text7,local,class=CODE,merge=1,delta=2
    19                           	psect	text8,local,class=CODE,merge=1,delta=2
    20                           	psect	text9,local,class=CODE,merge=1,delta=2
    21                           	psect	text10,local,class=CODE,merge=1,delta=2
    22                           	psect	text11,local,class=CODE,merge=1,delta=2
    23                           	psect	text12,local,class=CODE,merge=1,delta=2
    24                           	psect	text13,local,class=CODE,merge=1,delta=2
    25                           	psect	text14,local,class=CODE,merge=1,delta=2
    26                           	dabs	1,0x7E,2
    27  0000                     	;# 
    28  0001                     	;# 
    29  0002                     	;# 
    30  0003                     	;# 
    31  0004                     	;# 
    32  0005                     	;# 
    33  0006                     	;# 
    34  0007                     	;# 
    35  0008                     	;# 
    36  0009                     	;# 
    37  000A                     	;# 
    38  000B                     	;# 
    39  000C                     	;# 
    40  000D                     	;# 
    41  000E                     	;# 
    42  000E                     	;# 
    43  000F                     	;# 
    44  0010                     	;# 
    45  0011                     	;# 
    46  0012                     	;# 
    47  0013                     	;# 
    48  0014                     	;# 
    49  0015                     	;# 
    50  0015                     	;# 
    51  0016                     	;# 
    52  0017                     	;# 
    53  0018                     	;# 
    54  0019                     	;# 
    55  001A                     	;# 
    56  001B                     	;# 
    57  001B                     	;# 
    58  001C                     	;# 
    59  001D                     	;# 
    60  001E                     	;# 
    61  001F                     	;# 
    62  0081                     	;# 
    63  0085                     	;# 
    64  0086                     	;# 
    65  0087                     	;# 
    66  0088                     	;# 
    67  0089                     	;# 
    68  008C                     	;# 
    69  008D                     	;# 
    70  008E                     	;# 
    71  0091                     	;# 
    72  0092                     	;# 
    73  0093                     	;# 
    74  0094                     	;# 
    75  0098                     	;# 
    76  0099                     	;# 
    77  009C                     	;# 
    78  009D                     	;# 
    79  009E                     	;# 
    80  009F                     	;# 
    81  010C                     	;# 
    82  010D                     	;# 
    83  010E                     	;# 
    84  010F                     	;# 
    85  018C                     	;# 
    86  018D                     	;# 
    87                           
    88                           	psect	idataBANK1
    89  0D3C                     __pidataBANK1:	
    90                           
    91                           ;initializer for main@F1254
    92  0D3C  3400               	retlw	0
    93  0D3D  3400               	retlw	0
    94  0D3E  3400               	retlw	0
    95  0D3F  3400               	retlw	0
    96  0D40  3400               	retlw	0
    97  0D41  3400               	retlw	0
    98  0D42  3400               	retlw	0
    99  0D43  3400               	retlw	0
   100  0D44  3400               	retlw	0
   101  0D45  3400               	retlw	0
   102  0D46  3400               	retlw	0
   103  0D47  3400               	retlw	0
   104  0D48  3401               	retlw	1
   105  0D49  3400               	retlw	0
   106                           
   107                           ;initializer for main@F1256
   108  0D4A  3401               	retlw	1
   109  0D4B  3400               	retlw	0
   110  0D4C  3402               	retlw	2
   111  0D4D  3400               	retlw	0
   112  0D4E  3403               	retlw	3
   113  0D4F  3400               	retlw	0
   114  0D50  3404               	retlw	4
   115  0D51  3400               	retlw	0
   116  0D52  3405               	retlw	5
   117  0D53  3400               	retlw	0
   118  0D54  3406               	retlw	6
   119  0D55  3400               	retlw	0
   120  0028                     _RA0	set	40
   121  0029                     _RA1	set	41
   122  002A                     _RA2	set	42
   123  002B                     _RA3	set	43
   124  0030                     _RB0	set	48
   125  0031                     _RB1	set	49
   126  0032                     _RB2	set	50
   127  0034                     _RB4	set	52
   128  0035                     _RB5	set	53
   129  0036                     _RB6	set	54
   130  0037                     _RB7	set	55
   131  0038                     _RC0	set	56
   132  0042                     _RD2	set	66
   133  0043                     _RD3	set	67
   134  0044                     _RD4	set	68
   135  0045                     _RD5	set	69
   136  0046                     _RD6	set	70
   137  0047                     _RD7	set	71
   138  0048                     _RE0	set	72
   139  0049                     _RE1	set	73
   140  004A                     _RE2	set	74
   141  009F                     _ADCON1	set	159
   142  009C                     _CMCON	set	156
   143  0088                     _TRISD	set	136
   144  0089                     _TRISE	set	137
   145  0428                     _TRISA0	set	1064
   146  0429                     _TRISA1	set	1065
   147  042A                     _TRISA2	set	1066
   148  042B                     _TRISA3	set	1067
   149  0430                     _TRISB0	set	1072
   150  0431                     _TRISB1	set	1073
   151  0432                     _TRISB2	set	1074
   152  0434                     _TRISB4	set	1076
   153  0435                     _TRISB5	set	1077
   154  0436                     _TRISB6	set	1078
   155  0437                     _TRISB7	set	1079
   156  0438                     _TRISC0	set	1080
   157                           
   158                           	psect	strings
   159  0800                     __pstrings:	
   160  0800                     stringtab:	
   161  0800                     __stringtab:	
   162                           
   163                           ;	String table - string pointers are 1 byte each
   164  0800  1BFF               	btfsc	btemp+1,7
   165  0801  280A               	ljmp	stringcode
   166  0802  1383               	bcf	3,7
   167  0803  187F               	btfsc	btemp+1,0
   168  0804  1783               	bsf	3,7
   169  0805  0800               	movf	0,w
   170  0806  0A84               	incf	4,f
   171  0807  1903               	skipnz
   172  0808  0AFF               	incf	btemp+1,f
   173  0809  0008               	return
   174  080A                     stringcode:	
   175  080A                     stringdir:	
   176  080A  3008               	movlw	high stringdir
   177  080B  008A               	movwf	10
   178  080C  0804               	movf	4,w
   179  080D  0A84               	incf	4,f
   180  080E  0782               	addwf	2,f
   181  080F                     __stringbase:	
   182  080F  3400               	retlw	0
   183  0810                     __end_of__stringtab:	
   184  0810                     STR_1:	
   185  0810  3453               	retlw	83	;'S'
   186  0811  3445               	retlw	69	;'E'
   187  0812  344C               	retlw	76	;'L'
   188  0813  3445               	retlw	69	;'E'
   189  0814  3443               	retlw	67	;'C'
   190  0815  3454               	retlw	84	;'T'
   191  0816  3420               	retlw	32	;' '
   192  0817  344E               	retlw	78	;'N'
   193  0818  344F               	retlw	79	;'O'
   194  0819  3454               	retlw	84	;'T'
   195  081A  3449               	retlw	73	;'I'
   196  081B  3443               	retlw	67	;'C'
   197  081C  3445               	retlw	69	;'E'
   198  081D  3400               	retlw	0
   199                           
   200                           ; #config settings
   201  0000                     
   202                           	psect	cinit
   203  07F0                     start_initialization:	
   204  07F0                     __initialization:	
   205                           
   206                           ; Initialize objects allocated to BANK1
   207  07F0  1383               	bcf	3,7	;select IRP bank0
   208  07F1  30BA               	movlw	low (__pdataBANK1+26)
   209  07F2  00FD               	movwf	btemp+-1
   210  07F3  300D               	movlw	high __pidataBANK1
   211  07F4  00FE               	movwf	btemp
   212  07F5  303C               	movlw	low __pidataBANK1
   213  07F6  00FF               	movwf	btemp+1
   214  07F7  30A0               	movlw	low __pdataBANK1
   215  07F8  0084               	movwf	4
   216  07F9  120A  158A  24FB   	fcall	init_ram0
   217  07FC                     end_of_initialization:	
   218                           ;End of C runtime variable initialization code
   219                           
   220  07FC                     __end_of__initialization:	
   221  07FC  0183               	clrf	3
   222  07FD  120A  118A  289D   	ljmp	_main	;jump to C main() function
   223                           
   224                           	psect	dataBANK1
   225  00A0                     __pdataBANK1:	
   226  00A0                     main@F1254:	
   227  00A0                     	ds	14
   228  00AE                     main@F1256:	
   229  00AE                     	ds	12
   230                           
   231                           	psect	inittext
   232  0CF7                     init_fetch0:	
   233                           ;	Called with low address in FSR and high address in W
   234                           
   235  0CF7  087E               	movf	126,w
   236  0CF8  008A               	movwf	10
   237  0CF9  087F               	movf	127,w
   238  0CFA  0082               	movwf	2
   239  0CFB                     init_ram0:	
   240                           ;Called with:
   241                           ;	high address of idata address in btemp 
   242                           ;	low address of idata address in btemp+1 
   243                           ;	low address of data in FSR
   244                           ;	high address + 1 of data in btemp-1
   245                           
   246  0CFB  24F7  120A  158A   	fcall	init_fetch0
   247  0CFE  0080               	movwf	0
   248  0CFF  0A84               	incf	4,f
   249  0D00  0804               	movf	4,w
   250  0D01  067D               	xorwf	125,w
   251  0D02  1903               	btfsc	3,2
   252  0D03  3400               	retlw	0
   253  0D04  0AFF               	incf	127,f
   254  0D05  1903               	btfsc	3,2
   255  0D06  0AFE               	incf	126,f
   256  0D07  2CFB               	goto	init_ram0
   257                           
   258                           	psect	cstackCOMMON
   259  0070                     __pcstackCOMMON:	
   260  0070                     ?_place_notice:	
   261  0070                     ?_stepper:	
   262                           ; 1 bytes @ 0x0
   263                           
   264  0070                     ?_down:	
   265                           ; 1 bytes @ 0x0
   266                           
   267  0070                     ??_down:	
   268                           ; 1 bytes @ 0x0
   269                           
   270  0070                     ?_Lcd_Port:	
   271                           ; 1 bytes @ 0x0
   272                           
   273  0070                     ??_Lcd_Port:	
   274                           ; 1 bytes @ 0x0
   275                           
   276  0070                     ?_Lcd_Cmd:	
   277                           ; 1 bytes @ 0x0
   278                           
   279  0070                     ?_Lcd_Init:	
   280                           ; 1 bytes @ 0x0
   281                           
   282  0070                     ?_Lcd_Write_Char:	
   283                           ; 1 bytes @ 0x0
   284                           
   285  0070                     ?_main:	
   286                           ; 1 bytes @ 0x0
   287                           
   288  0070                     ?___lwdiv:	
   289                           ; 1 bytes @ 0x0
   290                           
   291  0070                     ?___lwmod:	
   292                           ; 2 bytes @ 0x0
   293                           
   294  0070                     Lcd_Port@a:	
   295                           ; 2 bytes @ 0x0
   296                           
   297  0070                     stepper@direction:	
   298                           ; 1 bytes @ 0x0
   299                           
   300  0070                     ___lwdiv@divisor:	
   301                           ; 1 bytes @ 0x0
   302                           
   303  0070                     ___lwmod@divisor:	
   304                           ; 2 bytes @ 0x0
   305                           
   306                           
   307                           ; 2 bytes @ 0x0
   308  0070                     	ds	1
   309  0071                     ??_Lcd_Cmd:	
   310  0071                     ??_Lcd_Write_Char:	
   311                           ; 1 bytes @ 0x1
   312                           
   313  0071                     stepper@size:	
   314                           ; 1 bytes @ 0x1
   315                           
   316                           
   317                           ; 2 bytes @ 0x1
   318  0071                     	ds	1
   319  0072                     Lcd_Write_Char@temp:	
   320  0072                     ___lwdiv@dividend:	
   321                           ; 1 bytes @ 0x2
   322                           
   323  0072                     ___lwmod@dividend:	
   324                           ; 2 bytes @ 0x2
   325                           
   326                           
   327                           ; 2 bytes @ 0x2
   328  0072                     	ds	1
   329  0073                     ??_stepper:	
   330  0073                     Lcd_Cmd@a:	
   331                           ; 1 bytes @ 0x3
   332                           
   333  0073                     Lcd_Write_Char@y:	
   334                           ; 1 bytes @ 0x3
   335                           
   336                           
   337                           ; 1 bytes @ 0x3
   338  0073                     	ds	1
   339  0074                     ?_Lcd_Set_Cursor:	
   340  0074                     ??_Lcd_Init:	
   341                           ; 1 bytes @ 0x4
   342                           
   343  0074                     ??___lwdiv:	
   344                           ; 1 bytes @ 0x4
   345                           
   346  0074                     ??___lwmod:	
   347                           ; 1 bytes @ 0x4
   348                           
   349  0074                     Lcd_Set_Cursor@b:	
   350                           ; 1 bytes @ 0x4
   351                           
   352  0074                     Lcd_Write_Char@a:	
   353                           ; 1 bytes @ 0x4
   354                           
   355                           
   356                           ; 1 bytes @ 0x4
   357  0074                     	ds	1
   358  0075                     ??_Lcd_Set_Cursor:	
   359  0075                     ?_Lcd_Write_String:	
   360                           ; 1 bytes @ 0x5
   361                           
   362  0075                     ___lwmod@counter:	
   363                           ; 1 bytes @ 0x5
   364                           
   365  0075                     Lcd_Write_String@a:	
   366                           ; 1 bytes @ 0x5
   367                           
   368  0075                     ___lwdiv@quotient:	
   369                           ; 2 bytes @ 0x5
   370                           
   371                           
   372                           ; 2 bytes @ 0x5
   373  0075                     	ds	1
   374  0076                     ??_place_notice:	
   375  0076                     ?_remove_notice:	
   376                           ; 1 bytes @ 0x6
   377                           
   378  0076                     remove_notice@var:	
   379                           ; 1 bytes @ 0x6
   380                           
   381                           
   382                           ; 2 bytes @ 0x6
   383  0076                     	ds	1
   384  0077                     ??_Lcd_Write_String:	
   385  0077                     Lcd_Set_Cursor@a:	
   386                           ; 1 bytes @ 0x7
   387                           
   388  0077                     ___lwdiv@counter:	
   389                           ; 1 bytes @ 0x7
   390                           
   391                           
   392                           ; 1 bytes @ 0x7
   393  0077                     	ds	1
   394  0078                     ??_remove_notice:	
   395  0078                     ?_utoa:	
   396                           ; 1 bytes @ 0x8
   397                           
   398  0078                     Lcd_Set_Cursor@z:	
   399                           ; 1 bytes @ 0x8
   400                           
   401  0078                     utoa@val:	
   402                           ; 1 bytes @ 0x8
   403                           
   404                           
   405                           ; 2 bytes @ 0x8
   406  0078                     	ds	1
   407  0079                     Lcd_Set_Cursor@y:	
   408  0079                     place_notice@num:	
   409                           ; 1 bytes @ 0x9
   410                           
   411                           
   412                           ; 1 bytes @ 0x9
   413  0079                     	ds	1
   414  007A                     Lcd_Set_Cursor@temp:	
   415  007A                     Lcd_Write_String@i:	
   416                           ; 1 bytes @ 0xA
   417                           
   418  007A                     utoa@base:	
   419                           ; 2 bytes @ 0xA
   420                           
   421                           
   422                           ; 2 bytes @ 0xA
   423  007A                     	ds	2
   424  007C                     ??_utoa:	
   425                           
   426                           ; 1 bytes @ 0xC
   427  007C                     	ds	1
   428  007D                     ??_itoa:	
   429                           
   430                           ; 1 bytes @ 0xD
   431  007D                     	ds	1
   432                           
   433                           	psect	cstackBANK0
   434  0020                     __pcstackBANK0:	
   435  0020                     stepper@motor:	
   436  0020                     utoa@v:	
   437                           ; 1 bytes @ 0x0
   438                           
   439                           
   440                           ; 2 bytes @ 0x0
   441  0020                     	ds	1
   442  0021                     stepper@count:	
   443                           
   444                           ; 2 bytes @ 0x1
   445  0021                     	ds	1
   446  0022                     utoa@c:	
   447                           
   448                           ; 1 bytes @ 0x2
   449  0022                     	ds	1
   450  0023                     utoa@buf:	
   451  0023                     stepper@count1:	
   452                           ; 1 bytes @ 0x3
   453                           
   454                           
   455                           ; 2 bytes @ 0x3
   456  0023                     	ds	1
   457  0024                     ?_itoa:	
   458  0024                     itoa@val:	
   459                           ; 1 bytes @ 0x4
   460                           
   461                           
   462                           ; 2 bytes @ 0x4
   463  0024                     	ds	1
   464  0025                     stepper@x:	
   465                           
   466                           ; 2 bytes @ 0x5
   467  0025                     	ds	1
   468  0026                     itoa@base:	
   469                           
   470                           ; 2 bytes @ 0x6
   471  0026                     	ds	1
   472  0027                     stepper@x_147:	
   473                           
   474                           ; 2 bytes @ 0x7
   475  0027                     	ds	1
   476  0028                     itoa@cp:	
   477                           
   478                           ; 1 bytes @ 0x8
   479  0028                     	ds	1
   480  0029                     stepper@last_state:	
   481  0029                     itoa@buf:	
   482                           ; 1 bytes @ 0x9
   483                           
   484                           
   485                           ; 1 bytes @ 0x9
   486  0029                     	ds	1
   487  002A                     stepper@last_state1:	
   488                           
   489                           ; 1 bytes @ 0xA
   490  002A                     	ds	1
   491  002B                     stepper@state:	
   492                           
   493                           ; 1 bytes @ 0xB
   494  002B                     	ds	1
   495  002C                     stepper@state1:	
   496                           
   497                           ; 1 bytes @ 0xC
   498  002C                     	ds	1
   499  002D                     ??_main:	
   500                           
   501                           ; 1 bytes @ 0xD
   502  002D                     	ds	4
   503  0031                     main@s:	
   504                           
   505                           ; 20 bytes @ 0x11
   506  0031                     	ds	20
   507  0045                     main@n_buff:	
   508                           
   509                           ; 14 bytes @ 0x25
   510  0045                     	ds	14
   511  0053                     main@s_buff:	
   512                           
   513                           ; 12 bytes @ 0x33
   514  0053                     	ds	12
   515  005F                     main@y:	
   516                           
   517                           ; 1 bytes @ 0x3F
   518  005F                     	ds	1
   519  0060                     main@p:	
   520                           
   521                           ; 1 bytes @ 0x40
   522  0060                     	ds	1
   523  0061                     main@buff:	
   524                           
   525                           ; 2 bytes @ 0x41
   526  0061                     	ds	2
   527  0063                     main@q:	
   528                           
   529                           ; 1 bytes @ 0x43
   530  0063                     	ds	1
   531  0064                     main@z:	
   532                           
   533                           ; 1 bytes @ 0x44
   534  0064                     	ds	1
   535  0065                     main@n:	
   536                           
   537                           ; 1 bytes @ 0x45
   538  0065                     	ds	1
   539  0066                     main@x:	
   540                           
   541                           ; 1 bytes @ 0x46
   542  0066                     	ds	1
   543  0067                     main@count:	
   544                           
   545                           ; 2 bytes @ 0x47
   546  0067                     	ds	2
   547                           
   548                           	psect	maintext
   549  009D                     __pmaintext:	
   550 ;;
   551 ;;Main: autosize = 0, tempsize = 4, incstack = 0, save=0
   552 ;;
   553 ;; *************** function _main *****************
   554 ;; Defined at:
   555 ;;		line 42 in file "BOARD_V2.c"
   556 ;; Parameters:    Size  Location     Type
   557 ;;		None
   558 ;; Auto vars:     Size  Location     Type
   559 ;;  z               1   68[BANK0 ] unsigned char 
   560 ;;  x               1   70[BANK0 ] unsigned char 
   561 ;;  y               1   63[BANK0 ] unsigned char 
   562 ;;  n               1   69[BANK0 ] unsigned char 
   563 ;;  q               1   67[BANK0 ] unsigned char 
   564 ;;  p               1   64[BANK0 ] unsigned char 
   565 ;;  s              20   17[BANK0 ] unsigned char [20]
   566 ;;  n_buff         14   37[BANK0 ] int [7]
   567 ;;  s_buff         12   51[BANK0 ] int [6]
   568 ;;  count           2   71[BANK0 ] int 
   569 ;;  buff            2   65[BANK0 ] int 
   570 ;; Return value:  Size  Location     Type
   571 ;;                  1    wreg      void 
   572 ;; Registers used:
   573 ;;		wreg, fsr0l, fsr0h, status,2, status,0, btemp+1, pclath, cstack
   574 ;; Tracked objects:
   575 ;;		On entry : B00/0
   576 ;;		On exit  : 0/0
   577 ;;		Unchanged: 0/0
   578 ;; Data sizes:     COMMON   BANK0   BANK1   BANK3   BANK2
   579 ;;      Params:         0       0       0       0       0
   580 ;;      Locals:         0      56       0       0       0
   581 ;;      Temps:          0       4       0       0       0
   582 ;;      Totals:         0      60       0       0       0
   583 ;;Total ram usage:       60 bytes
   584 ;; Hardware stack levels required when called:    3
   585 ;; This function calls:
   586 ;;		_Lcd_Init
   587 ;;		_Lcd_Set_Cursor
   588 ;;		_Lcd_Write_String
   589 ;;		_itoa
   590 ;;		_place_notice
   591 ;;		_remove_notice
   592 ;; This function is called by:
   593 ;;		Startup code after reset
   594 ;; This function uses a non-reentrant model
   595 ;;
   596                           
   597                           
   598                           ;psect for function _main
   599  009D                     _main:	
   600                           
   601                           ;BOARD_V2.c: 46: CMCON = 0x07;
   602                           
   603                           ;incstack = 0
   604                           ; Regs used in _main: [wreg-fsr0h+status,2+status,0+btemp+1+pclath+cstack]
   605  009D  3007               	movlw	7
   606  009E  1683               	bsf	3,5	;RP0=1, select bank1
   607  009F  1303               	bcf	3,6	;RP1=0, select bank1
   608  00A0  009C               	movwf	28	;volatile
   609                           
   610                           ;BOARD_V2.c: 47: ADCON1 = 0x06;
   611  00A1  3006               	movlw	6
   612  00A2  009F               	movwf	31	;volatile
   613                           
   614                           ;BOARD_V2.c: 48: TRISB0 = 1;
   615  00A3  1406               	bsf	6,0	;volatile
   616                           
   617                           ;BOARD_V2.c: 49: TRISB1 = 0;
   618  00A4  1086               	bcf	6,1	;volatile
   619                           
   620                           ;BOARD_V2.c: 50: TRISB2 = 0;
   621  00A5  1106               	bcf	6,2	;volatile
   622                           
   623                           ;BOARD_V2.c: 51: TRISB4 = 0;
   624  00A6  1206               	bcf	6,4	;volatile
   625                           
   626                           ;BOARD_V2.c: 52: TRISB5 = 0;
   627  00A7  1286               	bcf	6,5	;volatile
   628                           
   629                           ;BOARD_V2.c: 53: TRISB6 = 0;
   630  00A8  1306               	bcf	6,6	;volatile
   631                           
   632                           ;BOARD_V2.c: 54: TRISB7 = 0;
   633  00A9  1386               	bcf	6,7	;volatile
   634                           
   635                           ;BOARD_V2.c: 57: TRISE = 0;
   636  00AA  0189               	clrf	9	;volatile
   637                           
   638                           ;BOARD_V2.c: 58: RE0=0;
   639  00AB  1283               	bcf	3,5	;RP0=0, select bank0
   640  00AC  1303               	bcf	3,6	;RP1=0, select bank0
   641  00AD  1009               	bcf	9,0	;volatile
   642                           
   643                           ;BOARD_V2.c: 59: RE1=0;
   644  00AE  1089               	bcf	9,1	;volatile
   645                           
   646                           ;BOARD_V2.c: 60: RE2=0;
   647  00AF  1109               	bcf	9,2	;volatile
   648                           
   649                           ;BOARD_V2.c: 61: TRISA0 = 1;
   650  00B0  1683               	bsf	3,5	;RP0=1, select bank1
   651  00B1  1303               	bcf	3,6	;RP1=0, select bank1
   652  00B2  1405               	bsf	5,0	;volatile
   653                           
   654                           ;BOARD_V2.c: 62: TRISA1 = 0;
   655  00B3  1085               	bcf	5,1	;volatile
   656                           
   657                           ;BOARD_V2.c: 63: TRISA2 = 1;
   658  00B4  1505               	bsf	5,2	;volatile
   659                           
   660                           ;BOARD_V2.c: 64: TRISA3 = 1;
   661  00B5  1585               	bsf	5,3	;volatile
   662                           
   663                           ;BOARD_V2.c: 68: RB1=0;
   664  00B6  1283               	bcf	3,5	;RP0=0, select bank0
   665  00B7  1303               	bcf	3,6	;RP1=0, select bank0
   666  00B8  1086               	bcf	6,1	;volatile
   667                           
   668                           ;BOARD_V2.c: 69: RB2=0;
   669  00B9  1106               	bcf	6,2	;volatile
   670                           
   671                           ;BOARD_V2.c: 70: RB4=0;
   672  00BA  1206               	bcf	6,4	;volatile
   673                           
   674                           ;BOARD_V2.c: 71: RB5=0;
   675  00BB  1286               	bcf	6,5	;volatile
   676                           
   677                           ;BOARD_V2.c: 72: RB6=0;
   678  00BC  1306               	bcf	6,6	;volatile
   679                           
   680                           ;BOARD_V2.c: 73: RB7=0;
   681  00BD  1386               	bcf	6,7	;volatile
   682                           
   683                           ;BOARD_V2.c: 75: RA1 = 0;
   684  00BE  1085               	bcf	5,1	;volatile
   685                           
   686                           ;BOARD_V2.c: 77: TRISC0 = 1;
   687  00BF  1683               	bsf	3,5	;RP0=1, select bank1
   688  00C0  1303               	bcf	3,6	;RP1=0, select bank1
   689  00C1  1407               	bsf	7,0	;volatile
   690                           
   691                           ;BOARD_V2.c: 80: int n_buff[]= {0,0,0,0,0,0,1};
   692  00C2  3045               	movlw	main@n_buff& (0+255)
   693  00C3  0084               	movwf	4
   694  00C4  30A0               	movlw	low main@F1254
   695  00C5  1283               	bcf	3,5	;RP0=0, select bank0
   696  00C6  1303               	bcf	3,6	;RP1=0, select bank0
   697  00C7  00AD               	movwf	??_main
   698  00C8  0804               	movf	4,w
   699  00C9  00AE               	movwf	??_main+1
   700  00CA  300E               	movlw	14
   701  00CB  00AF               	movwf	??_main+2
   702  00CC                     u1190:	
   703  00CC  082D               	movf	??_main,w
   704  00CD  0084               	movwf	4
   705  00CE  1383               	bcf	3,7	;select IRP bank1
   706  00CF  0800               	movf	0,w
   707  00D0  00B0               	movwf	??_main+3
   708  00D1  0AAD               	incf	??_main,f
   709  00D2  082E               	movf	??_main+1,w
   710  00D3  0084               	movwf	4
   711  00D4  0830               	movf	??_main+3,w
   712  00D5  0080               	movwf	0
   713  00D6  0AAE               	incf	??_main+1,f
   714  00D7  0BAF               	decfsz	??_main+2,f
   715  00D8  28CC               	goto	u1190
   716                           
   717                           ;BOARD_V2.c: 81: int s_buff[]= {1,2,3,4,5,6};
   718  00D9  3053               	movlw	main@s_buff& (0+255)
   719  00DA  0084               	movwf	4
   720  00DB  30AE               	movlw	low main@F1256
   721  00DC  00AD               	movwf	??_main
   722  00DD  0804               	movf	4,w
   723  00DE  00AE               	movwf	??_main+1
   724  00DF  300C               	movlw	12
   725  00E0  00AF               	movwf	??_main+2
   726  00E1                     u1200:	
   727  00E1  082D               	movf	??_main,w
   728  00E2  0084               	movwf	4
   729  00E3  1383               	bcf	3,7	;select IRP bank1
   730  00E4  0800               	movf	0,w
   731  00E5  00B0               	movwf	??_main+3
   732  00E6  0AAD               	incf	??_main,f
   733  00E7  082E               	movf	??_main+1,w
   734  00E8  0084               	movwf	4
   735  00E9  0830               	movf	??_main+3,w
   736  00EA  0080               	movwf	0
   737  00EB  0AAE               	incf	??_main+1,f
   738  00EC  0BAF               	decfsz	??_main+2,f
   739  00ED  28E1               	goto	u1200
   740                           
   741                           ;BOARD_V2.c: 82: int count = 0;
   742  00EE  01E7               	clrf	main@count
   743  00EF  01E8               	clrf	main@count+1
   744                           
   745                           ;BOARD_V2.c: 83: char s[20];
   746                           ;BOARD_V2.c: 84: int buff;
   747                           ;BOARD_V2.c: 86: _delay((unsigned long)((1000)*(4000000/4000.0)));
   748  00F0  3006               	movlw	6
   749  00F1  00AF               	movwf	??_main+2
   750  00F2  3013               	movlw	19
   751  00F3  00AE               	movwf	??_main+1
   752  00F4  30B1               	movlw	177
   753  00F5  00AD               	movwf	??_main
   754  00F6                     u1357:	
   755  00F6  0BAD               	decfsz	??_main,f
   756  00F7  28F6               	goto	u1357
   757  00F8  0BAE               	decfsz	??_main+1,f
   758  00F9  28F6               	goto	u1357
   759  00FA  0BAF               	decfsz	??_main+2,f
   760  00FB  28F6               	goto	u1357
   761  00FC  28FD               	nop2
   762                           
   763                           ;BOARD_V2.c: 87: TRISD = 0x00;
   764  00FD  1683               	bsf	3,5	;RP0=1, select bank1
   765  00FE  1303               	bcf	3,6	;RP1=0, select bank1
   766  00FF  0188               	clrf	8	;volatile
   767                           
   768                           ;BOARD_V2.c: 88: Lcd_Init();
   769  0100  120A  158A  2684  120A  118A  	fcall	_Lcd_Init
   770                           
   771                           ;BOARD_V2.c: 90: Lcd_Set_Cursor(1,1);
   772  0105  01F4               	clrf	Lcd_Set_Cursor@b
   773  0106  0AF4               	incf	Lcd_Set_Cursor@b,f
   774  0107  3001               	movlw	1
   775  0108  120A  158A  263A  120A  118A  	fcall	_Lcd_Set_Cursor
   776                           
   777                           ;BOARD_V2.c: 91: Lcd_Write_String("SELECT NOTICE");
   778  010D  3001               	movlw	(low ((STR_1-__stringbase)| (0+32768)))& (0+255)
   779  010E  00F5               	movwf	Lcd_Write_String@a
   780  010F  3080               	movlw	128
   781  0110  00F6               	movwf	Lcd_Write_String@a+1
   782  0111  120A  158A  25FD  120A  118A  	fcall	_Lcd_Write_String
   783  0116                     l2257:	
   784                           ;BOARD_V2.c: 96: do
   785                           
   786                           
   787                           ;BOARD_V2.c: 97: {
   788                           ;BOARD_V2.c: 99: if(RA0 == 1)
   789  0116  1283               	bcf	3,5	;RP0=0, select bank0
   790  0117  1303               	bcf	3,6	;RP1=0, select bank0
   791  0118  1C05               	btfss	5,0	;volatile
   792  0119  29B0               	goto	l135
   793                           
   794                           ;BOARD_V2.c: 100: {
   795                           ;BOARD_V2.c: 101: _delay((unsigned long)((300)*(4000000/4000.0)));
   796  011A  3002               	movlw	2
   797  011B  00AF               	movwf	??_main+2
   798  011C  3086               	movlw	134
   799  011D  00AE               	movwf	??_main+1
   800  011E  3099               	movlw	153
   801  011F  00AD               	movwf	??_main
   802  0120                     u1367:	
   803  0120  0BAD               	decfsz	??_main,f
   804  0121  2920               	goto	u1367
   805  0122  0BAE               	decfsz	??_main+1,f
   806  0123  2920               	goto	u1367
   807  0124  0BAF               	decfsz	??_main+2,f
   808  0125  2920               	goto	u1367
   809                           
   810                           ;BOARD_V2.c: 103: if(RA0 == 1)
   811  0126  1283               	bcf	3,5	;RP0=0, select bank0
   812  0127  1303               	bcf	3,6	;RP1=0, select bank0
   813  0128  1C05               	btfss	5,0	;volatile
   814  0129  29B0               	goto	l135
   815                           
   816                           ;BOARD_V2.c: 104: {
   817                           ;BOARD_V2.c: 105: _delay((unsigned long)((400)*(4000000/4000.0)));
   818  012A  3003               	movlw	3
   819  012B  00AF               	movwf	??_main+2
   820  012C  3008               	movlw	8
   821  012D  00AE               	movwf	??_main+1
   822  012E  3078               	movlw	120
   823  012F  00AD               	movwf	??_main
   824  0130                     u1377:	
   825  0130  0BAD               	decfsz	??_main,f
   826  0131  2930               	goto	u1377
   827  0132  0BAE               	decfsz	??_main+1,f
   828  0133  2930               	goto	u1377
   829  0134  0BAF               	decfsz	??_main+2,f
   830  0135  2930               	goto	u1377
   831                           
   832                           ;BOARD_V2.c: 106: RA1 = 1;
   833  0136  1283               	bcf	3,5	;RP0=0, select bank0
   834  0137  1303               	bcf	3,6	;RP1=0, select bank0
   835  0138  1485               	bsf	5,1	;volatile
   836                           
   837                           ;BOARD_V2.c: 109: char x=0,y=0;
   838  0139  01E6               	clrf	main@x
   839  013A  01DF               	clrf	main@y
   840  013B                     l2305:	
   841                           ;BOARD_V2.c: 110: while(y==0)
   842                           
   843  013B  085F               	movf	main@y,w
   844  013C  1D03               	btfss	3,2
   845  013D  29AF               	goto	l143
   846                           
   847                           ;BOARD_V2.c: 111: {
   848                           ;BOARD_V2.c: 113: if( n_buff[x] == 0)
   849  013E  0866               	movf	main@x,w
   850  013F  00AD               	movwf	??_main
   851  0140  072D               	addwf	??_main,w
   852  0141  3E45               	addlw	(low (main@n_buff| 0))& (0+255)
   853  0142  0084               	movwf	4
   854  0143  1383               	bcf	3,7	;select IRP bank0
   855  0144  0800               	movf	0,w
   856  0145  00AE               	movwf	??_main+1
   857  0146  0A84               	incf	4,f
   858  0147  0800               	movf	0,w
   859  0148  00AF               	movwf	??_main+2
   860  0149  082E               	movf	??_main+1,w
   861  014A  042F               	iorwf	??_main+2,w
   862  014B  1D03               	btfss	3,2
   863  014C  2962               	goto	l2279
   864                           
   865                           ;BOARD_V2.c: 114: {
   866                           ;BOARD_V2.c: 115: place_notice(x);
   867  014D  0866               	movf	main@x,w
   868  014E  120A  118A  2260  120A  118A  	fcall	_place_notice
   869                           
   870                           ;BOARD_V2.c: 116: n_buff[x] = 1;
   871  0153  1283               	bcf	3,5	;RP0=0, select bank0
   872  0154  1303               	bcf	3,6	;RP1=0, select bank0
   873  0155  0866               	movf	main@x,w
   874  0156  00AD               	movwf	??_main
   875  0157  072D               	addwf	??_main,w
   876  0158  3E45               	addlw	(low (main@n_buff| 0))& (0+255)
   877  0159  0084               	movwf	4
   878  015A  3001               	movlw	1
   879  015B  1383               	bcf	3,7	;select IRP bank0
   880  015C  0080               	movwf	0
   881  015D  0A84               	incf	4,f
   882  015E  3000               	movlw	0
   883  015F  0080               	movwf	0
   884                           
   885                           ;BOARD_V2.c: 117: y = 1;
   886  0160  01DF               	clrf	main@y
   887  0161  0ADF               	incf	main@y,f
   888  0162                     l2279:	
   889                           
   890                           ;BOARD_V2.c: 118: }
   891                           ;BOARD_V2.c: 121: if (x == 6)
   892  0162  3006               	movlw	6
   893  0163  0666               	xorwf	main@x,w
   894  0164  1D03               	btfss	3,2
   895  0165  29AA               	goto	l2303
   896                           
   897                           ;BOARD_V2.c: 122: {
   898                           ;BOARD_V2.c: 124: remove_notice(s_buff[0]);
   899  0166  0854               	movf	main@s_buff+1,w
   900  0167  00F7               	movwf	remove_notice@var+1
   901  0168  0853               	movf	main@s_buff,w
   902  0169  00F6               	movwf	remove_notice@var
   903  016A  120A  118A  244C  120A  118A  	fcall	_remove_notice
   904                           
   905                           ;BOARD_V2.c: 126: buff = s_buff[0];
   906  016F  1283               	bcf	3,5	;RP0=0, select bank0
   907  0170  1303               	bcf	3,6	;RP1=0, select bank0
   908  0171  0854               	movf	main@s_buff+1,w
   909  0172  00E2               	movwf	main@buff+1
   910  0173  0853               	movf	main@s_buff,w
   911  0174  00E1               	movwf	main@buff
   912                           
   913                           ;BOARD_V2.c: 127: for(char z=0;z<5;z++)
   914  0175  01E4               	clrf	main@z
   915  0176  3005               	movlw	5
   916  0177  0264               	subwf	main@z,w
   917  0178  1803               	btfsc	3,0
   918  0179  2998               	goto	l2297
   919  017A                     l2291:	
   920                           
   921                           ;BOARD_V2.c: 128: {
   922                           ;BOARD_V2.c: 129: s_buff[z] = s_buff[z+1];
   923  017A  0864               	movf	main@z,w
   924  017B  00AD               	movwf	??_main
   925  017C  072D               	addwf	??_main,w
   926  017D  3E02               	addlw	2
   927  017E  3E53               	addlw	(low (main@s_buff| 0))& (0+255)
   928  017F  0084               	movwf	4
   929  0180  1383               	bcf	3,7	;select IRP bank0
   930  0181  0800               	movf	0,w
   931  0182  00AE               	movwf	??_main+1
   932  0183  0A84               	incf	4,f
   933  0184  0800               	movf	0,w
   934  0185  00AF               	movwf	??_main+2
   935  0186  0864               	movf	main@z,w
   936  0187  00B0               	movwf	??_main+3
   937  0188  0730               	addwf	??_main+3,w
   938  0189  3E53               	addlw	(low (main@s_buff| 0))& (0+255)
   939  018A  0084               	movwf	4
   940  018B  082E               	movf	??_main+1,w
   941  018C  0080               	movwf	0
   942  018D  0A84               	incf	4,f
   943  018E  082F               	movf	??_main+2,w
   944  018F  0080               	movwf	0
   945  0190  3001               	movlw	1
   946  0191  00AD               	movwf	??_main
   947  0192  082D               	movf	??_main,w
   948  0193  07E4               	addwf	main@z,f
   949  0194  3005               	movlw	5
   950  0195  0264               	subwf	main@z,w
   951  0196  1C03               	skipc
   952  0197  297A               	goto	l2291
   953  0198                     l2297:	
   954                           
   955                           ;BOARD_V2.c: 130: }
   956                           ;BOARD_V2.c: 131: s_buff[5] = buff ;
   957  0198  0862               	movf	main@buff+1,w
   958  0199  00DE               	movwf	main@s_buff+11
   959  019A  0861               	movf	main@buff,w
   960  019B  00DD               	movwf	main@s_buff+10
   961                           
   962                           ;BOARD_V2.c: 136: n_buff[buff-1] = 0;
   963  019C  0861               	movf	main@buff,w
   964  019D  00AD               	movwf	??_main
   965  019E  072D               	addwf	??_main,w
   966  019F  3EFE               	addlw	254
   967  01A0  3E45               	addlw	(low (main@n_buff| 0))& (0+255)
   968  01A1  0084               	movwf	4
   969  01A2  1383               	bcf	3,7	;select IRP bank0
   970  01A3  0180               	clrf	0
   971  01A4  0A84               	incf	4,f
   972  01A5  0180               	clrf	0
   973                           
   974                           ;BOARD_V2.c: 137: x = -1;
   975  01A6  30FF               	movlw	255
   976  01A7  00AD               	movwf	??_main
   977  01A8  082D               	movf	??_main,w
   978  01A9  00E6               	movwf	main@x
   979  01AA                     l2303:	
   980                           
   981                           ;BOARD_V2.c: 139: }
   982                           ;BOARD_V2.c: 140: x++;
   983  01AA  3001               	movlw	1
   984  01AB  00AD               	movwf	??_main
   985  01AC  082D               	movf	??_main,w
   986  01AD  07E6               	addwf	main@x,f
   987  01AE  293B               	goto	l2305
   988  01AF                     l143:	
   989                           
   990                           ;BOARD_V2.c: 141: }
   991                           ;BOARD_V2.c: 143: RA1 = 0;
   992  01AF  1085               	bcf	5,1	;volatile
   993  01B0                     l135:	
   994                           
   995                           ;BOARD_V2.c: 144: }
   996                           ;BOARD_V2.c: 145: }
   997                           ;BOARD_V2.c: 151: if(RA2 == 0)
   998  01B0  1905               	btfsc	5,2	;volatile
   999  01B1  29F0               	goto	l2321
  1000                           
  1001                           ;BOARD_V2.c: 152: {
  1002                           ;BOARD_V2.c: 153: count++;
  1003  01B2  3001               	movlw	1
  1004  01B3  07E7               	addwf	main@count,f
  1005  01B4  1803               	skipnc
  1006  01B5  0AE8               	incf	main@count+1,f
  1007  01B6  3000               	movlw	0
  1008  01B7  07E8               	addwf	main@count+1,f
  1009                           
  1010                           ;BOARD_V2.c: 154: Lcd_Set_Cursor(2,1);
  1011  01B8  01F4               	clrf	Lcd_Set_Cursor@b
  1012  01B9  0AF4               	incf	Lcd_Set_Cursor@b,f
  1013  01BA  3002               	movlw	2
  1014  01BB  120A  158A  263A  120A  118A  	fcall	_Lcd_Set_Cursor
  1015                           
  1016                           ;BOARD_V2.c: 155: itoa(s, count, 10);
  1017  01C0  1283               	bcf	3,5	;RP0=0, select bank0
  1018  01C1  1303               	bcf	3,6	;RP1=0, select bank0
  1019  01C2  0868               	movf	main@count+1,w
  1020  01C3  00A5               	movwf	itoa@val+1
  1021  01C4  0867               	movf	main@count,w
  1022  01C5  00A4               	movwf	itoa@val
  1023  01C6  300A               	movlw	10
  1024  01C7  00A6               	movwf	itoa@base
  1025  01C8  3000               	movlw	0
  1026  01C9  00A7               	movwf	itoa@base+1
  1027  01CA  3031               	movlw	(low (main@s| 0))& (0+255)
  1028  01CB  120A  118A  200B  120A  118A  	fcall	_itoa
  1029                           
  1030                           ;BOARD_V2.c: 156: Lcd_Write_String(s);
  1031  01D0  3031               	movlw	(low (main@s| 0))& (0+255)
  1032  01D1  00F5               	movwf	Lcd_Write_String@a
  1033  01D2  3000               	movlw	0
  1034  01D3  00F6               	movwf	Lcd_Write_String@a+1
  1035  01D4  120A  158A  25FD  120A  118A  	fcall	_Lcd_Write_String
  1036                           
  1037                           ;BOARD_V2.c: 157: _delay((unsigned long)((300)*(4000000/4000.0)));
  1038  01D9  3002               	movlw	2
  1039  01DA  1283               	bcf	3,5	;RP0=0, select bank0
  1040  01DB  1303               	bcf	3,6	;RP1=0, select bank0
  1041  01DC  00AF               	movwf	??_main+2
  1042  01DD  3086               	movlw	134
  1043  01DE  00AE               	movwf	??_main+1
  1044  01DF  3099               	movlw	153
  1045  01E0  00AD               	movwf	??_main
  1046  01E1                     u1387:	
  1047  01E1  0BAD               	decfsz	??_main,f
  1048  01E2  29E1               	goto	u1387
  1049  01E3  0BAE               	decfsz	??_main+1,f
  1050  01E4  29E1               	goto	u1387
  1051  01E5  0BAF               	decfsz	??_main+2,f
  1052  01E6  29E1               	goto	u1387
  1053                           
  1054                           ;BOARD_V2.c: 160: if(count == 6)
  1055  01E7  3006               	movlw	6
  1056  01E8  1283               	bcf	3,5	;RP0=0, select bank0
  1057  01E9  1303               	bcf	3,6	;RP1=0, select bank0
  1058  01EA  0667               	xorwf	main@count,w
  1059  01EB  0468               	iorwf	main@count+1,w
  1060  01EC  1D03               	btfss	3,2
  1061  01ED  29F0               	goto	l2321
  1062                           
  1063                           ;BOARD_V2.c: 161: {
  1064                           ;BOARD_V2.c: 162: count = 0;
  1065  01EE  01E7               	clrf	main@count
  1066  01EF  01E8               	clrf	main@count+1
  1067  01F0                     l2321:	
  1068                           
  1069                           ;BOARD_V2.c: 163: }
  1070                           ;BOARD_V2.c: 164: }
  1071                           ;BOARD_V2.c: 166: if(RA3 == 0)
  1072  01F0  1985               	btfsc	5,3	;volatile
  1073  01F1  2916               	goto	l2257
  1074                           
  1075                           ;BOARD_V2.c: 167: {
  1076                           ;BOARD_V2.c: 168: _delay((unsigned long)((200)*(4000000/4000.0)));
  1077  01F2  3002               	movlw	2
  1078  01F3  00AF               	movwf	??_main+2
  1079  01F4  3004               	movlw	4
  1080  01F5  00AE               	movwf	??_main+1
  1081  01F6  30BA               	movlw	186
  1082  01F7  00AD               	movwf	??_main
  1083  01F8                     u1397:	
  1084  01F8  0BAD               	decfsz	??_main,f
  1085  01F9  29F8               	goto	u1397
  1086  01FA  0BAE               	decfsz	??_main+1,f
  1087  01FB  29F8               	goto	u1397
  1088  01FC  0BAF               	decfsz	??_main+2,f
  1089  01FD  29F8               	goto	u1397
  1090  01FE  0000               	nop
  1091                           
  1092                           ;BOARD_V2.c: 170: remove_notice(count);
  1093  01FF  1283               	bcf	3,5	;RP0=0, select bank0
  1094  0200  1303               	bcf	3,6	;RP1=0, select bank0
  1095  0201  0868               	movf	main@count+1,w
  1096  0202  00F7               	movwf	remove_notice@var+1
  1097  0203  0867               	movf	main@count,w
  1098  0204  00F6               	movwf	remove_notice@var
  1099  0205  120A  118A  244C  120A  118A  	fcall	_remove_notice
  1100                           
  1101                           ;BOARD_V2.c: 171: n_buff[count-1]=0;
  1102  020A  1283               	bcf	3,5	;RP0=0, select bank0
  1103  020B  1303               	bcf	3,6	;RP1=0, select bank0
  1104  020C  0867               	movf	main@count,w
  1105  020D  00AD               	movwf	??_main
  1106  020E  072D               	addwf	??_main,w
  1107  020F  3EFE               	addlw	254
  1108  0210  3E45               	addlw	(low (main@n_buff| 0))& (0+255)
  1109  0211  0084               	movwf	4
  1110  0212  1383               	bcf	3,7	;select IRP bank0
  1111  0213  0180               	clrf	0
  1112  0214  0A84               	incf	4,f
  1113  0215  0180               	clrf	0
  1114                           
  1115                           ;BOARD_V2.c: 174: char p=0,q=0,n;
  1116  0216  01E0               	clrf	main@p
  1117  0217  01E3               	clrf	main@q
  1118  0218                     l147:	
  1119                           ;BOARD_V2.c: 175: while(p == 0)
  1120                           
  1121  0218  0860               	movf	main@p,w
  1122  0219  1D03               	btfss	3,2
  1123  021A  2A34               	goto	l2339
  1124                           
  1125                           ;BOARD_V2.c: 176: {
  1126                           ;BOARD_V2.c: 177: if(s_buff[q] == count)
  1127  021B  0863               	movf	main@q,w
  1128  021C  00AD               	movwf	??_main
  1129  021D  072D               	addwf	??_main,w
  1130  021E  3E53               	addlw	(low (main@s_buff| 0))& (0+255)
  1131  021F  0084               	movwf	4
  1132  0220  0800               	movf	0,w
  1133  0221  00AE               	movwf	??_main+1
  1134  0222  0A84               	incf	4,f
  1135  0223  0800               	movf	0,w
  1136  0224  00AF               	movwf	??_main+2
  1137  0225  0868               	movf	main@count+1,w
  1138  0226  062F               	xorwf	??_main+2,w
  1139  0227  1D03               	skipz
  1140  0228  2A2B               	goto	u1315
  1141  0229  0867               	movf	main@count,w
  1142  022A  062E               	xorwf	??_main+1,w
  1143  022B                     u1315:	
  1144  022B  1D03               	skipz
  1145  022C  2A2F               	goto	l2337
  1146                           
  1147                           ;BOARD_V2.c: 178: {
  1148                           ;BOARD_V2.c: 180: p = 1;
  1149  022D  01E0               	clrf	main@p
  1150  022E  0AE0               	incf	main@p,f
  1151  022F                     l2337:	
  1152                           
  1153                           ;BOARD_V2.c: 182: }
  1154                           ;BOARD_V2.c: 183: q++;
  1155  022F  3001               	movlw	1
  1156  0230  00AD               	movwf	??_main
  1157  0231  082D               	movf	??_main,w
  1158  0232  07E3               	addwf	main@q,f
  1159  0233  2A18               	goto	l147
  1160  0234                     l2339:	
  1161                           
  1162                           ;BOARD_V2.c: 184: }
  1163                           ;BOARD_V2.c: 185: q--;
  1164  0234  3001               	movlw	1
  1165  0235  02E3               	subwf	main@q,f
  1166                           
  1167                           ;BOARD_V2.c: 186: for(n=q;n<5;n++)
  1168  0236  0863               	movf	main@q,w
  1169  0237  00AD               	movwf	??_main
  1170  0238  082D               	movf	??_main,w
  1171  0239  00E5               	movwf	main@n
  1172  023A  3005               	movlw	5
  1173  023B  0265               	subwf	main@n,w
  1174  023C  1803               	btfsc	3,0
  1175  023D  2A5B               	goto	l2353
  1176  023E                     l2347:	
  1177                           
  1178                           ;BOARD_V2.c: 187: {
  1179                           ;BOARD_V2.c: 188: s_buff[n] = s_buff[n+1];
  1180  023E  0865               	movf	main@n,w
  1181  023F  00AD               	movwf	??_main
  1182  0240  072D               	addwf	??_main,w
  1183  0241  3E02               	addlw	2
  1184  0242  3E53               	addlw	(low (main@s_buff| 0))& (0+255)
  1185  0243  0084               	movwf	4
  1186  0244  0800               	movf	0,w
  1187  0245  00AE               	movwf	??_main+1
  1188  0246  0A84               	incf	4,f
  1189  0247  0800               	movf	0,w
  1190  0248  00AF               	movwf	??_main+2
  1191  0249  0865               	movf	main@n,w
  1192  024A  00B0               	movwf	??_main+3
  1193  024B  0730               	addwf	??_main+3,w
  1194  024C  3E53               	addlw	(low (main@s_buff| 0))& (0+255)
  1195  024D  0084               	movwf	4
  1196  024E  082E               	movf	??_main+1,w
  1197  024F  0080               	movwf	0
  1198  0250  0A84               	incf	4,f
  1199  0251  082F               	movf	??_main+2,w
  1200  0252  0080               	movwf	0
  1201  0253  3001               	movlw	1
  1202  0254  00AD               	movwf	??_main
  1203  0255  082D               	movf	??_main,w
  1204  0256  07E5               	addwf	main@n,f
  1205  0257  3005               	movlw	5
  1206  0258  0265               	subwf	main@n,w
  1207  0259  1C03               	skipc
  1208  025A  2A3E               	goto	l2347
  1209  025B                     l2353:	
  1210                           
  1211                           ;BOARD_V2.c: 190: }
  1212                           ;BOARD_V2.c: 191: s_buff[5] = count;
  1213  025B  0868               	movf	main@count+1,w
  1214  025C  00DE               	movwf	main@s_buff+11
  1215  025D  0867               	movf	main@count,w
  1216  025E  00DD               	movwf	main@s_buff+10
  1217                           
  1218                           ;BOARD_V2.c: 203: }
  1219                           ;BOARD_V2.c: 209: }while(1);
  1220  025F  2916               	goto	l2257
  1221  0260                     __end_of_main:	
  1222                           
  1223                           	psect	text1
  1224  044C                     __ptext1:	
  1225 ;; *************** function _remove_notice *****************
  1226 ;; Defined at:
  1227 ;;		line 408 in file "BOARD_V2.c"
  1228 ;; Parameters:    Size  Location     Type
  1229 ;;  var             2    6[COMMON] int 
  1230 ;; Auto vars:     Size  Location     Type
  1231 ;;		None
  1232 ;; Return value:  Size  Location     Type
  1233 ;;                  1    wreg      void 
  1234 ;; Registers used:
  1235 ;;		wreg, status,2, status,0, pclath, cstack
  1236 ;; Tracked objects:
  1237 ;;		On entry : 0/0
  1238 ;;		On exit  : 0/0
  1239 ;;		Unchanged: 0/0
  1240 ;; Data sizes:     COMMON   BANK0   BANK1   BANK3   BANK2
  1241 ;;      Params:         2       0       0       0       0
  1242 ;;      Locals:         0       0       0       0       0
  1243 ;;      Temps:          3       0       0       0       0
  1244 ;;      Totals:         5       0       0       0       0
  1245 ;;Total ram usage:        5 bytes
  1246 ;; Hardware stack levels used:    1
  1247 ;; Hardware stack levels required when called:    1
  1248 ;; This function calls:
  1249 ;;		_down
  1250 ;;		_stepper
  1251 ;; This function is called by:
  1252 ;;		_main
  1253 ;; This function uses a non-reentrant model
  1254 ;;
  1255                           
  1256                           
  1257                           ;psect for function _remove_notice
  1258  044C                     _remove_notice:	
  1259                           
  1260                           ;BOARD_V2.c: 411: if(var == 1)
  1261                           
  1262                           ;incstack = 0
  1263                           ; Regs used in _remove_notice: [wreg+status,2+status,0+pclath+cstack]
  1264  044C  0376               	decf	remove_notice@var,w
  1265  044D  0477               	iorwf	remove_notice@var+1,w
  1266  044E  1D03               	btfss	3,2
  1267  044F  2CE2               	goto	l1975
  1268                           
  1269                           ;BOARD_V2.c: 412: {
  1270                           ;BOARD_V2.c: 413: stepper(1,1,330);
  1271  0450  01F0               	clrf	stepper@direction
  1272  0451  0AF0               	incf	stepper@direction,f
  1273  0452  304A               	movlw	74
  1274  0453  00F1               	movwf	stepper@size
  1275  0454  3001               	movlw	1
  1276  0455  00F2               	movwf	stepper@size+1
  1277  0456  3001               	movlw	1
  1278  0457  120A  158A  26E0  120A  118A  	fcall	_stepper
  1279                           
  1280                           ;BOARD_V2.c: 414: stepper(2,1,3072);
  1281  045C  01F0               	clrf	stepper@direction
  1282  045D  0AF0               	incf	stepper@direction,f
  1283  045E  3000               	movlw	0
  1284  045F  00F1               	movwf	stepper@size
  1285  0460  300C               	movlw	12
  1286  0461  00F2               	movwf	stepper@size+1
  1287  0462  3002               	movlw	2
  1288  0463  120A  158A  26E0  120A  118A  	fcall	_stepper
  1289                           
  1290                           ;BOARD_V2.c: 416: RE1 = 1;
  1291  0468  1283               	bcf	3,5	;RP0=0, select bank0
  1292  0469  1303               	bcf	3,6	;RP1=0, select bank0
  1293  046A  1489               	bsf	9,1	;volatile
  1294                           
  1295                           ;BOARD_V2.c: 417: RE0 = 0;
  1296  046B  1009               	bcf	9,0	;volatile
  1297                           
  1298                           ;BOARD_V2.c: 418: _delay((unsigned long)((2000)*(4000000/4000.0)));
  1299  046C  300B               	movlw	11
  1300  046D  00FA               	movwf	??_remove_notice+2
  1301  046E  3026               	movlw	38
  1302  046F  00F9               	movwf	??_remove_notice+1
  1303  0470  3066               	movlw	102
  1304  0471  00F8               	movwf	??_remove_notice
  1305  0472                     u1407:	
  1306  0472  0BF8               	decfsz	??_remove_notice,f
  1307  0473  2C72               	goto	u1407
  1308  0474  0BF9               	decfsz	??_remove_notice+1,f
  1309  0475  2C72               	goto	u1407
  1310  0476  0BFA               	decfsz	??_remove_notice+2,f
  1311  0477  2C72               	goto	u1407
  1312  0478  2C79               	nop2
  1313                           
  1314                           ;BOARD_V2.c: 420: RE1 = 0;
  1315  0479  1283               	bcf	3,5	;RP0=0, select bank0
  1316  047A  1303               	bcf	3,6	;RP1=0, select bank0
  1317  047B  1089               	bcf	9,1	;volatile
  1318                           
  1319                           ;BOARD_V2.c: 421: RE0 = 0;
  1320  047C  1009               	bcf	9,0	;volatile
  1321                           
  1322                           ;BOARD_V2.c: 423: stepper(1,2,15);
  1323  047D  3002               	movlw	2
  1324  047E  00F8               	movwf	??_remove_notice
  1325  047F  0878               	movf	??_remove_notice,w
  1326  0480  00F0               	movwf	stepper@direction
  1327  0481  300F               	movlw	15
  1328  0482  00F1               	movwf	stepper@size
  1329  0483  3000               	movlw	0
  1330  0484  00F2               	movwf	stepper@size+1
  1331  0485  3001               	movlw	1
  1332  0486  120A  158A  26E0  120A  118A  	fcall	_stepper
  1333                           
  1334                           ;BOARD_V2.c: 425: RE2 = 1;
  1335  048B  1283               	bcf	3,5	;RP0=0, select bank0
  1336  048C  1303               	bcf	3,6	;RP1=0, select bank0
  1337  048D  1509               	bsf	9,2	;volatile
  1338                           
  1339                           ;BOARD_V2.c: 427: stepper(1,1,15);
  1340  048E  01F0               	clrf	stepper@direction
  1341  048F  0AF0               	incf	stepper@direction,f
  1342  0490  300F               	movlw	15
  1343  0491  00F1               	movwf	stepper@size
  1344  0492  3000               	movlw	0
  1345  0493  00F2               	movwf	stepper@size+1
  1346  0494  3001               	movlw	1
  1347  0495  120A  158A  26E0  120A  118A  	fcall	_stepper
  1348                           
  1349                           ;BOARD_V2.c: 429: RE1 = 0;
  1350  049A  1283               	bcf	3,5	;RP0=0, select bank0
  1351  049B  1303               	bcf	3,6	;RP1=0, select bank0
  1352  049C  1089               	bcf	9,1	;volatile
  1353                           
  1354                           ;BOARD_V2.c: 430: RE0 = 1;
  1355  049D  1409               	bsf	9,0	;volatile
  1356                           
  1357                           ;BOARD_V2.c: 431: _delay((unsigned long)((2000)*(4000000/4000.0)));
  1358  049E  300B               	movlw	11
  1359  049F  00FA               	movwf	??_remove_notice+2
  1360  04A0  3026               	movlw	38
  1361  04A1  00F9               	movwf	??_remove_notice+1
  1362  04A2  3066               	movlw	102
  1363  04A3  00F8               	movwf	??_remove_notice
  1364  04A4                     u1417:	
  1365  04A4  0BF8               	decfsz	??_remove_notice,f
  1366  04A5  2CA4               	goto	u1417
  1367  04A6  0BF9               	decfsz	??_remove_notice+1,f
  1368  04A7  2CA4               	goto	u1417
  1369  04A8  0BFA               	decfsz	??_remove_notice+2,f
  1370  04A9  2CA4               	goto	u1417
  1371  04AA  2CAB               	nop2
  1372                           
  1373                           ;BOARD_V2.c: 434: RE1 = 0;
  1374  04AB  1283               	bcf	3,5	;RP0=0, select bank0
  1375  04AC  1303               	bcf	3,6	;RP1=0, select bank0
  1376  04AD  1089               	bcf	9,1	;volatile
  1377                           
  1378                           ;BOARD_V2.c: 435: RE0 = 0;
  1379  04AE  1009               	bcf	9,0	;volatile
  1380                           
  1381                           ;BOARD_V2.c: 437: down();
  1382  04AF  120A  158A  24ED  120A  118A  	fcall	_down
  1383                           
  1384                           ;BOARD_V2.c: 439: RE2 = 0;
  1385  04B4  1283               	bcf	3,5	;RP0=0, select bank0
  1386  04B5  1303               	bcf	3,6	;RP1=0, select bank0
  1387  04B6  1109               	bcf	9,2	;volatile
  1388                           
  1389                           ;BOARD_V2.c: 440: _delay((unsigned long)((300)*(4000000/4000.0)));
  1390  04B7  3002               	movlw	2
  1391  04B8  00FA               	movwf	??_remove_notice+2
  1392  04B9  3086               	movlw	134
  1393  04BA  00F9               	movwf	??_remove_notice+1
  1394  04BB  3099               	movlw	153
  1395  04BC  00F8               	movwf	??_remove_notice
  1396  04BD                     u1427:	
  1397  04BD  0BF8               	decfsz	??_remove_notice,f
  1398  04BE  2CBD               	goto	u1427
  1399  04BF  0BF9               	decfsz	??_remove_notice+1,f
  1400  04C0  2CBD               	goto	u1427
  1401  04C1  0BFA               	decfsz	??_remove_notice+2,f
  1402  04C2  2CBD               	goto	u1427
  1403                           
  1404                           ;BOARD_V2.c: 441: stepper(1,1,20);
  1405  04C3  01F0               	clrf	stepper@direction
  1406  04C4  0AF0               	incf	stepper@direction,f
  1407  04C5  3014               	movlw	20
  1408  04C6  00F1               	movwf	stepper@size
  1409  04C7  3000               	movlw	0
  1410  04C8  00F2               	movwf	stepper@size+1
  1411  04C9  3001               	movlw	1
  1412  04CA  120A  158A  26E0  120A  118A  	fcall	_stepper
  1413                           
  1414                           ;BOARD_V2.c: 442: stepper(2,2,3072);
  1415  04CF  3002               	movlw	2
  1416  04D0  00F8               	movwf	??_remove_notice
  1417  04D1  0878               	movf	??_remove_notice,w
  1418  04D2  00F0               	movwf	stepper@direction
  1419  04D3  3000               	movlw	0
  1420  04D4  00F1               	movwf	stepper@size
  1421  04D5  300C               	movlw	12
  1422  04D6  00F2               	movwf	stepper@size+1
  1423  04D7  3002               	movlw	2
  1424  04D8  120A  158A  26E0  120A  118A  	fcall	_stepper
  1425                           
  1426                           ;BOARD_V2.c: 443: down();
  1427  04DD  120A  158A  24ED  120A  118A  	fcall	_down
  1428  04E2                     l1975:	
  1429                           
  1430                           ;BOARD_V2.c: 444: }
  1431                           ;BOARD_V2.c: 446: if(var == 2)
  1432  04E2  3002               	movlw	2
  1433  04E3  0676               	xorwf	remove_notice@var,w
  1434  04E4  0477               	iorwf	remove_notice@var+1,w
  1435  04E5  1D03               	btfss	3,2
  1436  04E6  2D79               	goto	l2015
  1437                           
  1438                           ;BOARD_V2.c: 447: {
  1439                           ;BOARD_V2.c: 449: stepper(1,1,330);
  1440  04E7  01F0               	clrf	stepper@direction
  1441  04E8  0AF0               	incf	stepper@direction,f
  1442  04E9  304A               	movlw	74
  1443  04EA  00F1               	movwf	stepper@size
  1444  04EB  3001               	movlw	1
  1445  04EC  00F2               	movwf	stepper@size+1
  1446  04ED  3001               	movlw	1
  1447  04EE  120A  158A  26E0  120A  118A  	fcall	_stepper
  1448                           
  1449                           ;BOARD_V2.c: 452: RE1 = 1;
  1450  04F3  1283               	bcf	3,5	;RP0=0, select bank0
  1451  04F4  1303               	bcf	3,6	;RP1=0, select bank0
  1452  04F5  1489               	bsf	9,1	;volatile
  1453                           
  1454                           ;BOARD_V2.c: 453: RE0 = 0;
  1455  04F6  1009               	bcf	9,0	;volatile
  1456                           
  1457                           ;BOARD_V2.c: 454: _delay((unsigned long)((2000)*(4000000/4000.0)));
  1458  04F7  300B               	movlw	11
  1459  04F8  00FA               	movwf	??_remove_notice+2
  1460  04F9  3026               	movlw	38
  1461  04FA  00F9               	movwf	??_remove_notice+1
  1462  04FB  3066               	movlw	102
  1463  04FC  00F8               	movwf	??_remove_notice
  1464  04FD                     u1437:	
  1465  04FD  0BF8               	decfsz	??_remove_notice,f
  1466  04FE  2CFD               	goto	u1437
  1467  04FF  0BF9               	decfsz	??_remove_notice+1,f
  1468  0500  2CFD               	goto	u1437
  1469  0501  0BFA               	decfsz	??_remove_notice+2,f
  1470  0502  2CFD               	goto	u1437
  1471  0503  2D04               	nop2
  1472                           
  1473                           ;BOARD_V2.c: 456: RE1 = 0;
  1474  0504  1283               	bcf	3,5	;RP0=0, select bank0
  1475  0505  1303               	bcf	3,6	;RP1=0, select bank0
  1476  0506  1089               	bcf	9,1	;volatile
  1477                           
  1478                           ;BOARD_V2.c: 457: RE0 = 0;
  1479  0507  1009               	bcf	9,0	;volatile
  1480                           
  1481                           ;BOARD_V2.c: 459: stepper(1,2,15);
  1482  0508  3002               	movlw	2
  1483  0509  00F8               	movwf	??_remove_notice
  1484  050A  0878               	movf	??_remove_notice,w
  1485  050B  00F0               	movwf	stepper@direction
  1486  050C  300F               	movlw	15
  1487  050D  00F1               	movwf	stepper@size
  1488  050E  3000               	movlw	0
  1489  050F  00F2               	movwf	stepper@size+1
  1490  0510  3001               	movlw	1
  1491  0511  120A  158A  26E0  120A  118A  	fcall	_stepper
  1492                           
  1493                           ;BOARD_V2.c: 461: RE2 = 1;
  1494  0516  1283               	bcf	3,5	;RP0=0, select bank0
  1495  0517  1303               	bcf	3,6	;RP1=0, select bank0
  1496  0518  1509               	bsf	9,2	;volatile
  1497                           
  1498                           ;BOARD_V2.c: 463: stepper(1,1,15);
  1499  0519  01F0               	clrf	stepper@direction
  1500  051A  0AF0               	incf	stepper@direction,f
  1501  051B  300F               	movlw	15
  1502  051C  00F1               	movwf	stepper@size
  1503  051D  3000               	movlw	0
  1504  051E  00F2               	movwf	stepper@size+1
  1505  051F  3001               	movlw	1
  1506  0520  120A  158A  26E0  120A  118A  	fcall	_stepper
  1507                           
  1508                           ;BOARD_V2.c: 465: RE1 = 0;
  1509  0525  1283               	bcf	3,5	;RP0=0, select bank0
  1510  0526  1303               	bcf	3,6	;RP1=0, select bank0
  1511  0527  1089               	bcf	9,1	;volatile
  1512                           
  1513                           ;BOARD_V2.c: 466: RE0 = 1;
  1514  0528  1409               	bsf	9,0	;volatile
  1515                           
  1516                           ;BOARD_V2.c: 467: _delay((unsigned long)((2000)*(4000000/4000.0)));
  1517  0529  300B               	movlw	11
  1518  052A  00FA               	movwf	??_remove_notice+2
  1519  052B  3026               	movlw	38
  1520  052C  00F9               	movwf	??_remove_notice+1
  1521  052D  3066               	movlw	102
  1522  052E  00F8               	movwf	??_remove_notice
  1523  052F                     u1447:	
  1524  052F  0BF8               	decfsz	??_remove_notice,f
  1525  0530  2D2F               	goto	u1447
  1526  0531  0BF9               	decfsz	??_remove_notice+1,f
  1527  0532  2D2F               	goto	u1447
  1528  0533  0BFA               	decfsz	??_remove_notice+2,f
  1529  0534  2D2F               	goto	u1447
  1530  0535  2D36               	nop2
  1531                           
  1532                           ;BOARD_V2.c: 470: RE1 = 0;
  1533  0536  1283               	bcf	3,5	;RP0=0, select bank0
  1534  0537  1303               	bcf	3,6	;RP1=0, select bank0
  1535  0538  1089               	bcf	9,1	;volatile
  1536                           
  1537                           ;BOARD_V2.c: 471: RE0 = 0;
  1538  0539  1009               	bcf	9,0	;volatile
  1539                           
  1540                           ;BOARD_V2.c: 473: stepper(2,1,3072);
  1541  053A  01F0               	clrf	stepper@direction
  1542  053B  0AF0               	incf	stepper@direction,f
  1543  053C  3000               	movlw	0
  1544  053D  00F1               	movwf	stepper@size
  1545  053E  300C               	movlw	12
  1546  053F  00F2               	movwf	stepper@size+1
  1547  0540  3002               	movlw	2
  1548  0541  120A  158A  26E0  120A  118A  	fcall	_stepper
  1549                           
  1550                           ;BOARD_V2.c: 474: down();
  1551  0546  120A  158A  24ED  120A  118A  	fcall	_down
  1552                           
  1553                           ;BOARD_V2.c: 475: RE2 = 0;
  1554  054B  1283               	bcf	3,5	;RP0=0, select bank0
  1555  054C  1303               	bcf	3,6	;RP1=0, select bank0
  1556  054D  1109               	bcf	9,2	;volatile
  1557                           
  1558                           ;BOARD_V2.c: 476: _delay((unsigned long)((300)*(4000000/4000.0)));
  1559  054E  3002               	movlw	2
  1560  054F  00FA               	movwf	??_remove_notice+2
  1561  0550  3086               	movlw	134
  1562  0551  00F9               	movwf	??_remove_notice+1
  1563  0552  3099               	movlw	153
  1564  0553  00F8               	movwf	??_remove_notice
  1565  0554                     u1457:	
  1566  0554  0BF8               	decfsz	??_remove_notice,f
  1567  0555  2D54               	goto	u1457
  1568  0556  0BF9               	decfsz	??_remove_notice+1,f
  1569  0557  2D54               	goto	u1457
  1570  0558  0BFA               	decfsz	??_remove_notice+2,f
  1571  0559  2D54               	goto	u1457
  1572                           
  1573                           ;BOARD_V2.c: 477: stepper(1,1,20);
  1574  055A  01F0               	clrf	stepper@direction
  1575  055B  0AF0               	incf	stepper@direction,f
  1576  055C  3014               	movlw	20
  1577  055D  00F1               	movwf	stepper@size
  1578  055E  3000               	movlw	0
  1579  055F  00F2               	movwf	stepper@size+1
  1580  0560  3001               	movlw	1
  1581  0561  120A  158A  26E0  120A  118A  	fcall	_stepper
  1582                           
  1583                           ;BOARD_V2.c: 478: stepper(2,2,3072);
  1584  0566  3002               	movlw	2
  1585  0567  00F8               	movwf	??_remove_notice
  1586  0568  0878               	movf	??_remove_notice,w
  1587  0569  00F0               	movwf	stepper@direction
  1588  056A  3000               	movlw	0
  1589  056B  00F1               	movwf	stepper@size
  1590  056C  300C               	movlw	12
  1591  056D  00F2               	movwf	stepper@size+1
  1592  056E  3002               	movlw	2
  1593  056F  120A  158A  26E0  120A  118A  	fcall	_stepper
  1594                           
  1595                           ;BOARD_V2.c: 479: down();
  1596  0574  120A  158A  24ED  120A  118A  	fcall	_down
  1597  0579                     l2015:	
  1598                           
  1599                           ;BOARD_V2.c: 480: }
  1600                           ;BOARD_V2.c: 482: if(var == 3)
  1601  0579  3003               	movlw	3
  1602  057A  0676               	xorwf	remove_notice@var,w
  1603  057B  0477               	iorwf	remove_notice@var+1,w
  1604  057C  1D03               	btfss	3,2
  1605  057D  2E1E               	goto	l2055
  1606                           
  1607                           ;BOARD_V2.c: 483: {
  1608                           ;BOARD_V2.c: 484: stepper(1,1,330);
  1609  057E  01F0               	clrf	stepper@direction
  1610  057F  0AF0               	incf	stepper@direction,f
  1611  0580  304A               	movlw	74
  1612  0581  00F1               	movwf	stepper@size
  1613  0582  3001               	movlw	1
  1614  0583  00F2               	movwf	stepper@size+1
  1615  0584  3001               	movlw	1
  1616  0585  120A  158A  26E0  120A  118A  	fcall	_stepper
  1617                           
  1618                           ;BOARD_V2.c: 485: stepper(2,2,3072);
  1619  058A  3002               	movlw	2
  1620  058B  00F8               	movwf	??_remove_notice
  1621  058C  0878               	movf	??_remove_notice,w
  1622  058D  00F0               	movwf	stepper@direction
  1623  058E  3000               	movlw	0
  1624  058F  00F1               	movwf	stepper@size
  1625  0590  300C               	movlw	12
  1626  0591  00F2               	movwf	stepper@size+1
  1627  0592  3002               	movlw	2
  1628  0593  120A  158A  26E0  120A  118A  	fcall	_stepper
  1629                           
  1630                           ;BOARD_V2.c: 487: RE1 = 1;
  1631  0598  1283               	bcf	3,5	;RP0=0, select bank0
  1632  0599  1303               	bcf	3,6	;RP1=0, select bank0
  1633  059A  1489               	bsf	9,1	;volatile
  1634                           
  1635                           ;BOARD_V2.c: 488: RE0 = 0;
  1636  059B  1009               	bcf	9,0	;volatile
  1637                           
  1638                           ;BOARD_V2.c: 489: _delay((unsigned long)((2000)*(4000000/4000.0)));
  1639  059C  300B               	movlw	11
  1640  059D  00FA               	movwf	??_remove_notice+2
  1641  059E  3026               	movlw	38
  1642  059F  00F9               	movwf	??_remove_notice+1
  1643  05A0  3066               	movlw	102
  1644  05A1  00F8               	movwf	??_remove_notice
  1645  05A2                     u1467:	
  1646  05A2  0BF8               	decfsz	??_remove_notice,f
  1647  05A3  2DA2               	goto	u1467
  1648  05A4  0BF9               	decfsz	??_remove_notice+1,f
  1649  05A5  2DA2               	goto	u1467
  1650  05A6  0BFA               	decfsz	??_remove_notice+2,f
  1651  05A7  2DA2               	goto	u1467
  1652  05A8  2DA9               	nop2
  1653                           
  1654                           ;BOARD_V2.c: 491: RE1 = 0;
  1655  05A9  1283               	bcf	3,5	;RP0=0, select bank0
  1656  05AA  1303               	bcf	3,6	;RP1=0, select bank0
  1657  05AB  1089               	bcf	9,1	;volatile
  1658                           
  1659                           ;BOARD_V2.c: 492: RE0 = 0;
  1660  05AC  1009               	bcf	9,0	;volatile
  1661                           
  1662                           ;BOARD_V2.c: 494: stepper(1,2,15);
  1663  05AD  3002               	movlw	2
  1664  05AE  00F8               	movwf	??_remove_notice
  1665  05AF  0878               	movf	??_remove_notice,w
  1666  05B0  00F0               	movwf	stepper@direction
  1667  05B1  300F               	movlw	15
  1668  05B2  00F1               	movwf	stepper@size
  1669  05B3  3000               	movlw	0
  1670  05B4  00F2               	movwf	stepper@size+1
  1671  05B5  3001               	movlw	1
  1672  05B6  120A  158A  26E0  120A  118A  	fcall	_stepper
  1673                           
  1674                           ;BOARD_V2.c: 496: RE2 = 1;
  1675  05BB  1283               	bcf	3,5	;RP0=0, select bank0
  1676  05BC  1303               	bcf	3,6	;RP1=0, select bank0
  1677  05BD  1509               	bsf	9,2	;volatile
  1678                           
  1679                           ;BOARD_V2.c: 498: stepper(1,1,15);
  1680  05BE  01F0               	clrf	stepper@direction
  1681  05BF  0AF0               	incf	stepper@direction,f
  1682  05C0  300F               	movlw	15
  1683  05C1  00F1               	movwf	stepper@size
  1684  05C2  3000               	movlw	0
  1685  05C3  00F2               	movwf	stepper@size+1
  1686  05C4  3001               	movlw	1
  1687  05C5  120A  158A  26E0  120A  118A  	fcall	_stepper
  1688                           
  1689                           ;BOARD_V2.c: 500: RE1 = 0;
  1690  05CA  1283               	bcf	3,5	;RP0=0, select bank0
  1691  05CB  1303               	bcf	3,6	;RP1=0, select bank0
  1692  05CC  1089               	bcf	9,1	;volatile
  1693                           
  1694                           ;BOARD_V2.c: 501: RE0 = 1;
  1695  05CD  1409               	bsf	9,0	;volatile
  1696                           
  1697                           ;BOARD_V2.c: 502: _delay((unsigned long)((2000)*(4000000/4000.0)));
  1698  05CE  300B               	movlw	11
  1699  05CF  00FA               	movwf	??_remove_notice+2
  1700  05D0  3026               	movlw	38
  1701  05D1  00F9               	movwf	??_remove_notice+1
  1702  05D2  3066               	movlw	102
  1703  05D3  00F8               	movwf	??_remove_notice
  1704  05D4                     u1477:	
  1705  05D4  0BF8               	decfsz	??_remove_notice,f
  1706  05D5  2DD4               	goto	u1477
  1707  05D6  0BF9               	decfsz	??_remove_notice+1,f
  1708  05D7  2DD4               	goto	u1477
  1709  05D8  0BFA               	decfsz	??_remove_notice+2,f
  1710  05D9  2DD4               	goto	u1477
  1711  05DA  2DDB               	nop2
  1712                           
  1713                           ;BOARD_V2.c: 505: RE1 = 0;
  1714  05DB  1283               	bcf	3,5	;RP0=0, select bank0
  1715  05DC  1303               	bcf	3,6	;RP1=0, select bank0
  1716  05DD  1089               	bcf	9,1	;volatile
  1717                           
  1718                           ;BOARD_V2.c: 506: RE0 = 0;
  1719  05DE  1009               	bcf	9,0	;volatile
  1720                           
  1721                           ;BOARD_V2.c: 508: stepper(2,1,6144);
  1722  05DF  01F0               	clrf	stepper@direction
  1723  05E0  0AF0               	incf	stepper@direction,f
  1724  05E1  3000               	movlw	0
  1725  05E2  00F1               	movwf	stepper@size
  1726  05E3  3018               	movlw	24
  1727  05E4  00F2               	movwf	stepper@size+1
  1728  05E5  3002               	movlw	2
  1729  05E6  120A  158A  26E0  120A  118A  	fcall	_stepper
  1730                           
  1731                           ;BOARD_V2.c: 509: down();
  1732  05EB  120A  158A  24ED  120A  118A  	fcall	_down
  1733                           
  1734                           ;BOARD_V2.c: 511: RE2 = 0;
  1735  05F0  1283               	bcf	3,5	;RP0=0, select bank0
  1736  05F1  1303               	bcf	3,6	;RP1=0, select bank0
  1737  05F2  1109               	bcf	9,2	;volatile
  1738                           
  1739                           ;BOARD_V2.c: 512: _delay((unsigned long)((300)*(4000000/4000.0)));
  1740  05F3  3002               	movlw	2
  1741  05F4  00FA               	movwf	??_remove_notice+2
  1742  05F5  3086               	movlw	134
  1743  05F6  00F9               	movwf	??_remove_notice+1
  1744  05F7  3099               	movlw	153
  1745  05F8  00F8               	movwf	??_remove_notice
  1746  05F9                     u1487:	
  1747  05F9  0BF8               	decfsz	??_remove_notice,f
  1748  05FA  2DF9               	goto	u1487
  1749  05FB  0BF9               	decfsz	??_remove_notice+1,f
  1750  05FC  2DF9               	goto	u1487
  1751  05FD  0BFA               	decfsz	??_remove_notice+2,f
  1752  05FE  2DF9               	goto	u1487
  1753                           
  1754                           ;BOARD_V2.c: 513: stepper(1,1,20);
  1755  05FF  01F0               	clrf	stepper@direction
  1756  0600  0AF0               	incf	stepper@direction,f
  1757  0601  3014               	movlw	20
  1758  0602  00F1               	movwf	stepper@size
  1759  0603  3000               	movlw	0
  1760  0604  00F2               	movwf	stepper@size+1
  1761  0605  3001               	movlw	1
  1762  0606  120A  158A  26E0  120A  118A  	fcall	_stepper
  1763                           
  1764                           ;BOARD_V2.c: 514: stepper(2,2,3072);
  1765  060B  3002               	movlw	2
  1766  060C  00F8               	movwf	??_remove_notice
  1767  060D  0878               	movf	??_remove_notice,w
  1768  060E  00F0               	movwf	stepper@direction
  1769  060F  3000               	movlw	0
  1770  0610  00F1               	movwf	stepper@size
  1771  0611  300C               	movlw	12
  1772  0612  00F2               	movwf	stepper@size+1
  1773  0613  3002               	movlw	2
  1774  0614  120A  158A  26E0  120A  118A  	fcall	_stepper
  1775                           
  1776                           ;BOARD_V2.c: 515: down();
  1777  0619  120A  158A  24ED  120A  118A  	fcall	_down
  1778  061E                     l2055:	
  1779                           
  1780                           ;BOARD_V2.c: 516: }
  1781                           ;BOARD_V2.c: 518: if(var == 4)
  1782  061E  3004               	movlw	4
  1783  061F  0676               	xorwf	remove_notice@var,w
  1784  0620  0477               	iorwf	remove_notice@var+1,w
  1785  0621  1D03               	btfss	3,2
  1786  0622  2EB5               	goto	l2095
  1787                           
  1788                           ;BOARD_V2.c: 519: {
  1789                           ;BOARD_V2.c: 520: stepper(1,1,170);
  1790  0623  01F0               	clrf	stepper@direction
  1791  0624  0AF0               	incf	stepper@direction,f
  1792  0625  30AA               	movlw	170
  1793  0626  00F1               	movwf	stepper@size
  1794  0627  3000               	movlw	0
  1795  0628  00F2               	movwf	stepper@size+1
  1796  0629  3001               	movlw	1
  1797  062A  120A  158A  26E0  120A  118A  	fcall	_stepper
  1798                           
  1799                           ;BOARD_V2.c: 521: stepper(2,1,3072);
  1800  062F  01F0               	clrf	stepper@direction
  1801  0630  0AF0               	incf	stepper@direction,f
  1802  0631  3000               	movlw	0
  1803  0632  00F1               	movwf	stepper@size
  1804  0633  300C               	movlw	12
  1805  0634  00F2               	movwf	stepper@size+1
  1806  0635  3002               	movlw	2
  1807  0636  120A  158A  26E0  120A  118A  	fcall	_stepper
  1808                           
  1809                           ;BOARD_V2.c: 523: RE1 = 1;
  1810  063B  1283               	bcf	3,5	;RP0=0, select bank0
  1811  063C  1303               	bcf	3,6	;RP1=0, select bank0
  1812  063D  1489               	bsf	9,1	;volatile
  1813                           
  1814                           ;BOARD_V2.c: 524: RE0 = 0;
  1815  063E  1009               	bcf	9,0	;volatile
  1816                           
  1817                           ;BOARD_V2.c: 525: _delay((unsigned long)((2000)*(4000000/4000.0)));
  1818  063F  300B               	movlw	11
  1819  0640  00FA               	movwf	??_remove_notice+2
  1820  0641  3026               	movlw	38
  1821  0642  00F9               	movwf	??_remove_notice+1
  1822  0643  3066               	movlw	102
  1823  0644  00F8               	movwf	??_remove_notice
  1824  0645                     u1497:	
  1825  0645  0BF8               	decfsz	??_remove_notice,f
  1826  0646  2E45               	goto	u1497
  1827  0647  0BF9               	decfsz	??_remove_notice+1,f
  1828  0648  2E45               	goto	u1497
  1829  0649  0BFA               	decfsz	??_remove_notice+2,f
  1830  064A  2E45               	goto	u1497
  1831  064B  2E4C               	nop2
  1832                           
  1833                           ;BOARD_V2.c: 527: RE1 = 0;
  1834  064C  1283               	bcf	3,5	;RP0=0, select bank0
  1835  064D  1303               	bcf	3,6	;RP1=0, select bank0
  1836  064E  1089               	bcf	9,1	;volatile
  1837                           
  1838                           ;BOARD_V2.c: 528: RE0 = 0;
  1839  064F  1009               	bcf	9,0	;volatile
  1840                           
  1841                           ;BOARD_V2.c: 530: stepper(1,2,15);
  1842  0650  3002               	movlw	2
  1843  0651  00F8               	movwf	??_remove_notice
  1844  0652  0878               	movf	??_remove_notice,w
  1845  0653  00F0               	movwf	stepper@direction
  1846  0654  300F               	movlw	15
  1847  0655  00F1               	movwf	stepper@size
  1848  0656  3000               	movlw	0
  1849  0657  00F2               	movwf	stepper@size+1
  1850  0658  3001               	movlw	1
  1851  0659  120A  158A  26E0  120A  118A  	fcall	_stepper
  1852                           
  1853                           ;BOARD_V2.c: 532: RE2 = 1;
  1854  065E  1283               	bcf	3,5	;RP0=0, select bank0
  1855  065F  1303               	bcf	3,6	;RP1=0, select bank0
  1856  0660  1509               	bsf	9,2	;volatile
  1857                           
  1858                           ;BOARD_V2.c: 534: stepper(1,1,15);
  1859  0661  01F0               	clrf	stepper@direction
  1860  0662  0AF0               	incf	stepper@direction,f
  1861  0663  300F               	movlw	15
  1862  0664  00F1               	movwf	stepper@size
  1863  0665  3000               	movlw	0
  1864  0666  00F2               	movwf	stepper@size+1
  1865  0667  3001               	movlw	1
  1866  0668  120A  158A  26E0  120A  118A  	fcall	_stepper
  1867                           
  1868                           ;BOARD_V2.c: 536: RE1 = 0;
  1869  066D  1283               	bcf	3,5	;RP0=0, select bank0
  1870  066E  1303               	bcf	3,6	;RP1=0, select bank0
  1871  066F  1089               	bcf	9,1	;volatile
  1872                           
  1873                           ;BOARD_V2.c: 537: RE0 = 1;
  1874  0670  1409               	bsf	9,0	;volatile
  1875                           
  1876                           ;BOARD_V2.c: 538: _delay((unsigned long)((2000)*(4000000/4000.0)));
  1877  0671  300B               	movlw	11
  1878  0672  00FA               	movwf	??_remove_notice+2
  1879  0673  3026               	movlw	38
  1880  0674  00F9               	movwf	??_remove_notice+1
  1881  0675  3066               	movlw	102
  1882  0676  00F8               	movwf	??_remove_notice
  1883  0677                     u1507:	
  1884  0677  0BF8               	decfsz	??_remove_notice,f
  1885  0678  2E77               	goto	u1507
  1886  0679  0BF9               	decfsz	??_remove_notice+1,f
  1887  067A  2E77               	goto	u1507
  1888  067B  0BFA               	decfsz	??_remove_notice+2,f
  1889  067C  2E77               	goto	u1507
  1890  067D  2E7E               	nop2
  1891                           
  1892                           ;BOARD_V2.c: 541: RE1 = 0;
  1893  067E  1283               	bcf	3,5	;RP0=0, select bank0
  1894  067F  1303               	bcf	3,6	;RP1=0, select bank0
  1895  0680  1089               	bcf	9,1	;volatile
  1896                           
  1897                           ;BOARD_V2.c: 542: RE0 = 0;
  1898  0681  1009               	bcf	9,0	;volatile
  1899                           
  1900                           ;BOARD_V2.c: 544: down();
  1901  0682  120A  158A  24ED  120A  118A  	fcall	_down
  1902                           
  1903                           ;BOARD_V2.c: 546: RE2 = 0;
  1904  0687  1283               	bcf	3,5	;RP0=0, select bank0
  1905  0688  1303               	bcf	3,6	;RP1=0, select bank0
  1906  0689  1109               	bcf	9,2	;volatile
  1907                           
  1908                           ;BOARD_V2.c: 547: _delay((unsigned long)((300)*(4000000/4000.0)));
  1909  068A  3002               	movlw	2
  1910  068B  00FA               	movwf	??_remove_notice+2
  1911  068C  3086               	movlw	134
  1912  068D  00F9               	movwf	??_remove_notice+1
  1913  068E  3099               	movlw	153
  1914  068F  00F8               	movwf	??_remove_notice
  1915  0690                     u1517:	
  1916  0690  0BF8               	decfsz	??_remove_notice,f
  1917  0691  2E90               	goto	u1517
  1918  0692  0BF9               	decfsz	??_remove_notice+1,f
  1919  0693  2E90               	goto	u1517
  1920  0694  0BFA               	decfsz	??_remove_notice+2,f
  1921  0695  2E90               	goto	u1517
  1922                           
  1923                           ;BOARD_V2.c: 548: stepper(1,1,20);
  1924  0696  01F0               	clrf	stepper@direction
  1925  0697  0AF0               	incf	stepper@direction,f
  1926  0698  3014               	movlw	20
  1927  0699  00F1               	movwf	stepper@size
  1928  069A  3000               	movlw	0
  1929  069B  00F2               	movwf	stepper@size+1
  1930  069C  3001               	movlw	1
  1931  069D  120A  158A  26E0  120A  118A  	fcall	_stepper
  1932                           
  1933                           ;BOARD_V2.c: 549: stepper(2,2,3072);
  1934  06A2  3002               	movlw	2
  1935  06A3  00F8               	movwf	??_remove_notice
  1936  06A4  0878               	movf	??_remove_notice,w
  1937  06A5  00F0               	movwf	stepper@direction
  1938  06A6  3000               	movlw	0
  1939  06A7  00F1               	movwf	stepper@size
  1940  06A8  300C               	movlw	12
  1941  06A9  00F2               	movwf	stepper@size+1
  1942  06AA  3002               	movlw	2
  1943  06AB  120A  158A  26E0  120A  118A  	fcall	_stepper
  1944                           
  1945                           ;BOARD_V2.c: 550: down();
  1946  06B0  120A  158A  24ED  120A  118A  	fcall	_down
  1947  06B5                     l2095:	
  1948                           
  1949                           ;BOARD_V2.c: 552: }
  1950                           ;BOARD_V2.c: 554: if(var == 5)
  1951  06B5  3005               	movlw	5
  1952  06B6  0676               	xorwf	remove_notice@var,w
  1953  06B7  0477               	iorwf	remove_notice@var+1,w
  1954  06B8  1D03               	btfss	3,2
  1955  06B9  2F4C               	goto	l2135
  1956                           
  1957                           ;BOARD_V2.c: 555: {
  1958                           ;BOARD_V2.c: 556: stepper(1,1,170);
  1959  06BA  01F0               	clrf	stepper@direction
  1960  06BB  0AF0               	incf	stepper@direction,f
  1961  06BC  30AA               	movlw	170
  1962  06BD  00F1               	movwf	stepper@size
  1963  06BE  3000               	movlw	0
  1964  06BF  00F2               	movwf	stepper@size+1
  1965  06C0  3001               	movlw	1
  1966  06C1  120A  158A  26E0  120A  118A  	fcall	_stepper
  1967                           
  1968                           ;BOARD_V2.c: 558: RE1 = 1;
  1969  06C6  1283               	bcf	3,5	;RP0=0, select bank0
  1970  06C7  1303               	bcf	3,6	;RP1=0, select bank0
  1971  06C8  1489               	bsf	9,1	;volatile
  1972                           
  1973                           ;BOARD_V2.c: 559: RE0 = 0;
  1974  06C9  1009               	bcf	9,0	;volatile
  1975                           
  1976                           ;BOARD_V2.c: 560: _delay((unsigned long)((2000)*(4000000/4000.0)));
  1977  06CA  300B               	movlw	11
  1978  06CB  00FA               	movwf	??_remove_notice+2
  1979  06CC  3026               	movlw	38
  1980  06CD  00F9               	movwf	??_remove_notice+1
  1981  06CE  3066               	movlw	102
  1982  06CF  00F8               	movwf	??_remove_notice
  1983  06D0                     u1527:	
  1984  06D0  0BF8               	decfsz	??_remove_notice,f
  1985  06D1  2ED0               	goto	u1527
  1986  06D2  0BF9               	decfsz	??_remove_notice+1,f
  1987  06D3  2ED0               	goto	u1527
  1988  06D4  0BFA               	decfsz	??_remove_notice+2,f
  1989  06D5  2ED0               	goto	u1527
  1990  06D6  2ED7               	nop2
  1991                           
  1992                           ;BOARD_V2.c: 562: RE1 = 0;
  1993  06D7  1283               	bcf	3,5	;RP0=0, select bank0
  1994  06D8  1303               	bcf	3,6	;RP1=0, select bank0
  1995  06D9  1089               	bcf	9,1	;volatile
  1996                           
  1997                           ;BOARD_V2.c: 563: RE0 = 0;
  1998  06DA  1009               	bcf	9,0	;volatile
  1999                           
  2000                           ;BOARD_V2.c: 565: stepper(1,2,15);
  2001  06DB  3002               	movlw	2
  2002  06DC  00F8               	movwf	??_remove_notice
  2003  06DD  0878               	movf	??_remove_notice,w
  2004  06DE  00F0               	movwf	stepper@direction
  2005  06DF  300F               	movlw	15
  2006  06E0  00F1               	movwf	stepper@size
  2007  06E1  3000               	movlw	0
  2008  06E2  00F2               	movwf	stepper@size+1
  2009  06E3  3001               	movlw	1
  2010  06E4  120A  158A  26E0  120A  118A  	fcall	_stepper
  2011                           
  2012                           ;BOARD_V2.c: 567: RE2 = 1;
  2013  06E9  1283               	bcf	3,5	;RP0=0, select bank0
  2014  06EA  1303               	bcf	3,6	;RP1=0, select bank0
  2015  06EB  1509               	bsf	9,2	;volatile
  2016                           
  2017                           ;BOARD_V2.c: 569: stepper(1,1,15);
  2018  06EC  01F0               	clrf	stepper@direction
  2019  06ED  0AF0               	incf	stepper@direction,f
  2020  06EE  300F               	movlw	15
  2021  06EF  00F1               	movwf	stepper@size
  2022  06F0  3000               	movlw	0
  2023  06F1  00F2               	movwf	stepper@size+1
  2024  06F2  3001               	movlw	1
  2025  06F3  120A  158A  26E0  120A  118A  	fcall	_stepper
  2026                           
  2027                           ;BOARD_V2.c: 571: RE1 = 0;
  2028  06F8  1283               	bcf	3,5	;RP0=0, select bank0
  2029  06F9  1303               	bcf	3,6	;RP1=0, select bank0
  2030  06FA  1089               	bcf	9,1	;volatile
  2031                           
  2032                           ;BOARD_V2.c: 572: RE0 = 1;
  2033  06FB  1409               	bsf	9,0	;volatile
  2034                           
  2035                           ;BOARD_V2.c: 573: _delay((unsigned long)((2000)*(4000000/4000.0)));
  2036  06FC  300B               	movlw	11
  2037  06FD  00FA               	movwf	??_remove_notice+2
  2038  06FE  3026               	movlw	38
  2039  06FF  00F9               	movwf	??_remove_notice+1
  2040  0700  3066               	movlw	102
  2041  0701  00F8               	movwf	??_remove_notice
  2042  0702                     u1537:	
  2043  0702  0BF8               	decfsz	??_remove_notice,f
  2044  0703  2F02               	goto	u1537
  2045  0704  0BF9               	decfsz	??_remove_notice+1,f
  2046  0705  2F02               	goto	u1537
  2047  0706  0BFA               	decfsz	??_remove_notice+2,f
  2048  0707  2F02               	goto	u1537
  2049  0708  2F09               	nop2
  2050                           
  2051                           ;BOARD_V2.c: 576: RE1 = 0;
  2052  0709  1283               	bcf	3,5	;RP0=0, select bank0
  2053  070A  1303               	bcf	3,6	;RP1=0, select bank0
  2054  070B  1089               	bcf	9,1	;volatile
  2055                           
  2056                           ;BOARD_V2.c: 577: RE0 = 0;
  2057  070C  1009               	bcf	9,0	;volatile
  2058                           
  2059                           ;BOARD_V2.c: 579: stepper(2,1,3072);
  2060  070D  01F0               	clrf	stepper@direction
  2061  070E  0AF0               	incf	stepper@direction,f
  2062  070F  3000               	movlw	0
  2063  0710  00F1               	movwf	stepper@size
  2064  0711  300C               	movlw	12
  2065  0712  00F2               	movwf	stepper@size+1
  2066  0713  3002               	movlw	2
  2067  0714  120A  158A  26E0  120A  118A  	fcall	_stepper
  2068                           
  2069                           ;BOARD_V2.c: 581: down();
  2070  0719  120A  158A  24ED  120A  118A  	fcall	_down
  2071                           
  2072                           ;BOARD_V2.c: 583: RE2 = 0;
  2073  071E  1283               	bcf	3,5	;RP0=0, select bank0
  2074  071F  1303               	bcf	3,6	;RP1=0, select bank0
  2075  0720  1109               	bcf	9,2	;volatile
  2076                           
  2077                           ;BOARD_V2.c: 584: _delay((unsigned long)((300)*(4000000/4000.0)));
  2078  0721  3002               	movlw	2
  2079  0722  00FA               	movwf	??_remove_notice+2
  2080  0723  3086               	movlw	134
  2081  0724  00F9               	movwf	??_remove_notice+1
  2082  0725  3099               	movlw	153
  2083  0726  00F8               	movwf	??_remove_notice
  2084  0727                     u1547:	
  2085  0727  0BF8               	decfsz	??_remove_notice,f
  2086  0728  2F27               	goto	u1547
  2087  0729  0BF9               	decfsz	??_remove_notice+1,f
  2088  072A  2F27               	goto	u1547
  2089  072B  0BFA               	decfsz	??_remove_notice+2,f
  2090  072C  2F27               	goto	u1547
  2091                           
  2092                           ;BOARD_V2.c: 585: stepper(1,1,20);
  2093  072D  01F0               	clrf	stepper@direction
  2094  072E  0AF0               	incf	stepper@direction,f
  2095  072F  3014               	movlw	20
  2096  0730  00F1               	movwf	stepper@size
  2097  0731  3000               	movlw	0
  2098  0732  00F2               	movwf	stepper@size+1
  2099  0733  3001               	movlw	1
  2100  0734  120A  158A  26E0  120A  118A  	fcall	_stepper
  2101                           
  2102                           ;BOARD_V2.c: 586: stepper(2,2,3072);
  2103  0739  3002               	movlw	2
  2104  073A  00F8               	movwf	??_remove_notice
  2105  073B  0878               	movf	??_remove_notice,w
  2106  073C  00F0               	movwf	stepper@direction
  2107  073D  3000               	movlw	0
  2108  073E  00F1               	movwf	stepper@size
  2109  073F  300C               	movlw	12
  2110  0740  00F2               	movwf	stepper@size+1
  2111  0741  3002               	movlw	2
  2112  0742  120A  158A  26E0  120A  118A  	fcall	_stepper
  2113                           
  2114                           ;BOARD_V2.c: 587: down();
  2115  0747  120A  158A  24ED  120A  118A  	fcall	_down
  2116  074C                     l2135:	
  2117                           
  2118                           ;BOARD_V2.c: 589: }
  2119                           ;BOARD_V2.c: 591: if(var == 6)
  2120  074C  3006               	movlw	6
  2121  074D  0676               	xorwf	remove_notice@var,w
  2122  074E  0477               	iorwf	remove_notice@var+1,w
  2123  074F  1D03               	btfss	3,2
  2124  0750  0008               	return
  2125                           
  2126                           ;BOARD_V2.c: 592: {
  2127                           ;BOARD_V2.c: 593: stepper(1,1,170);
  2128  0751  01F0               	clrf	stepper@direction
  2129  0752  0AF0               	incf	stepper@direction,f
  2130  0753  30AA               	movlw	170
  2131  0754  00F1               	movwf	stepper@size
  2132  0755  3000               	movlw	0
  2133  0756  00F2               	movwf	stepper@size+1
  2134  0757  3001               	movlw	1
  2135  0758  120A  158A  26E0  120A  118A  	fcall	_stepper
  2136                           
  2137                           ;BOARD_V2.c: 594: stepper(2,2,3072);
  2138  075D  3002               	movlw	2
  2139  075E  00F8               	movwf	??_remove_notice
  2140  075F  0878               	movf	??_remove_notice,w
  2141  0760  00F0               	movwf	stepper@direction
  2142  0761  3000               	movlw	0
  2143  0762  00F1               	movwf	stepper@size
  2144  0763  300C               	movlw	12
  2145  0764  00F2               	movwf	stepper@size+1
  2146  0765  3002               	movlw	2
  2147  0766  120A  158A  26E0  120A  118A  	fcall	_stepper
  2148                           
  2149                           ;BOARD_V2.c: 596: RE1 = 1;
  2150  076B  1283               	bcf	3,5	;RP0=0, select bank0
  2151  076C  1303               	bcf	3,6	;RP1=0, select bank0
  2152  076D  1489               	bsf	9,1	;volatile
  2153                           
  2154                           ;BOARD_V2.c: 597: RE0 = 0;
  2155  076E  1009               	bcf	9,0	;volatile
  2156                           
  2157                           ;BOARD_V2.c: 598: _delay((unsigned long)((2000)*(4000000/4000.0)));
  2158  076F  300B               	movlw	11
  2159  0770  00FA               	movwf	??_remove_notice+2
  2160  0771  3026               	movlw	38
  2161  0772  00F9               	movwf	??_remove_notice+1
  2162  0773  3066               	movlw	102
  2163  0774  00F8               	movwf	??_remove_notice
  2164  0775                     u1557:	
  2165  0775  0BF8               	decfsz	??_remove_notice,f
  2166  0776  2F75               	goto	u1557
  2167  0777  0BF9               	decfsz	??_remove_notice+1,f
  2168  0778  2F75               	goto	u1557
  2169  0779  0BFA               	decfsz	??_remove_notice+2,f
  2170  077A  2F75               	goto	u1557
  2171  077B  2F7C               	nop2
  2172                           
  2173                           ;BOARD_V2.c: 600: RE1 = 0;
  2174  077C  1283               	bcf	3,5	;RP0=0, select bank0
  2175  077D  1303               	bcf	3,6	;RP1=0, select bank0
  2176  077E  1089               	bcf	9,1	;volatile
  2177                           
  2178                           ;BOARD_V2.c: 601: RE0 = 0;
  2179  077F  1009               	bcf	9,0	;volatile
  2180                           
  2181                           ;BOARD_V2.c: 603: stepper(1,2,15);
  2182  0780  3002               	movlw	2
  2183  0781  00F8               	movwf	??_remove_notice
  2184  0782  0878               	movf	??_remove_notice,w
  2185  0783  00F0               	movwf	stepper@direction
  2186  0784  300F               	movlw	15
  2187  0785  00F1               	movwf	stepper@size
  2188  0786  3000               	movlw	0
  2189  0787  00F2               	movwf	stepper@size+1
  2190  0788  3001               	movlw	1
  2191  0789  120A  158A  26E0  120A  118A  	fcall	_stepper
  2192                           
  2193                           ;BOARD_V2.c: 605: RE2 = 1;
  2194  078E  1283               	bcf	3,5	;RP0=0, select bank0
  2195  078F  1303               	bcf	3,6	;RP1=0, select bank0
  2196  0790  1509               	bsf	9,2	;volatile
  2197                           
  2198                           ;BOARD_V2.c: 607: stepper(1,1,15);
  2199  0791  01F0               	clrf	stepper@direction
  2200  0792  0AF0               	incf	stepper@direction,f
  2201  0793  300F               	movlw	15
  2202  0794  00F1               	movwf	stepper@size
  2203  0795  3000               	movlw	0
  2204  0796  00F2               	movwf	stepper@size+1
  2205  0797  3001               	movlw	1
  2206  0798  120A  158A  26E0  120A  118A  	fcall	_stepper
  2207                           
  2208                           ;BOARD_V2.c: 609: RE1 = 0;
  2209  079D  1283               	bcf	3,5	;RP0=0, select bank0
  2210  079E  1303               	bcf	3,6	;RP1=0, select bank0
  2211  079F  1089               	bcf	9,1	;volatile
  2212                           
  2213                           ;BOARD_V2.c: 610: RE0 = 1;
  2214  07A0  1409               	bsf	9,0	;volatile
  2215                           
  2216                           ;BOARD_V2.c: 611: _delay((unsigned long)((2000)*(4000000/4000.0)));
  2217  07A1  300B               	movlw	11
  2218  07A2  00FA               	movwf	??_remove_notice+2
  2219  07A3  3026               	movlw	38
  2220  07A4  00F9               	movwf	??_remove_notice+1
  2221  07A5  3066               	movlw	102
  2222  07A6  00F8               	movwf	??_remove_notice
  2223  07A7                     u1567:	
  2224  07A7  0BF8               	decfsz	??_remove_notice,f
  2225  07A8  2FA7               	goto	u1567
  2226  07A9  0BF9               	decfsz	??_remove_notice+1,f
  2227  07AA  2FA7               	goto	u1567
  2228  07AB  0BFA               	decfsz	??_remove_notice+2,f
  2229  07AC  2FA7               	goto	u1567
  2230  07AD  2FAE               	nop2
  2231                           
  2232                           ;BOARD_V2.c: 614: RE1 = 0;
  2233  07AE  1283               	bcf	3,5	;RP0=0, select bank0
  2234  07AF  1303               	bcf	3,6	;RP1=0, select bank0
  2235  07B0  1089               	bcf	9,1	;volatile
  2236                           
  2237                           ;BOARD_V2.c: 615: RE0 = 0;
  2238  07B1  1009               	bcf	9,0	;volatile
  2239                           
  2240                           ;BOARD_V2.c: 617: stepper(2,1,6144);
  2241  07B2  01F0               	clrf	stepper@direction
  2242  07B3  0AF0               	incf	stepper@direction,f
  2243  07B4  3000               	movlw	0
  2244  07B5  00F1               	movwf	stepper@size
  2245  07B6  3018               	movlw	24
  2246  07B7  00F2               	movwf	stepper@size+1
  2247  07B8  3002               	movlw	2
  2248  07B9  120A  158A  26E0  120A  118A  	fcall	_stepper
  2249                           
  2250                           ;BOARD_V2.c: 618: down();
  2251  07BE  120A  158A  24ED  120A  118A  	fcall	_down
  2252                           
  2253                           ;BOARD_V2.c: 620: RE2 = 0;
  2254  07C3  1283               	bcf	3,5	;RP0=0, select bank0
  2255  07C4  1303               	bcf	3,6	;RP1=0, select bank0
  2256  07C5  1109               	bcf	9,2	;volatile
  2257                           
  2258                           ;BOARD_V2.c: 621: _delay((unsigned long)((300)*(4000000/4000.0)));
  2259  07C6  3002               	movlw	2
  2260  07C7  00FA               	movwf	??_remove_notice+2
  2261  07C8  3086               	movlw	134
  2262  07C9  00F9               	movwf	??_remove_notice+1
  2263  07CA  3099               	movlw	153
  2264  07CB  00F8               	movwf	??_remove_notice
  2265  07CC                     u1577:	
  2266  07CC  0BF8               	decfsz	??_remove_notice,f
  2267  07CD  2FCC               	goto	u1577
  2268  07CE  0BF9               	decfsz	??_remove_notice+1,f
  2269  07CF  2FCC               	goto	u1577
  2270  07D0  0BFA               	decfsz	??_remove_notice+2,f
  2271  07D1  2FCC               	goto	u1577
  2272                           
  2273                           ;BOARD_V2.c: 622: stepper(1,1,20);
  2274  07D2  01F0               	clrf	stepper@direction
  2275  07D3  0AF0               	incf	stepper@direction,f
  2276  07D4  3014               	movlw	20
  2277  07D5  00F1               	movwf	stepper@size
  2278  07D6  3000               	movlw	0
  2279  07D7  00F2               	movwf	stepper@size+1
  2280  07D8  3001               	movlw	1
  2281  07D9  120A  158A  26E0  120A  118A  	fcall	_stepper
  2282                           
  2283                           ;BOARD_V2.c: 623: stepper(2,2,3072);
  2284  07DE  3002               	movlw	2
  2285  07DF  00F8               	movwf	??_remove_notice
  2286  07E0  0878               	movf	??_remove_notice,w
  2287  07E1  00F0               	movwf	stepper@direction
  2288  07E2  3000               	movlw	0
  2289  07E3  00F1               	movwf	stepper@size
  2290  07E4  300C               	movlw	12
  2291  07E5  00F2               	movwf	stepper@size+1
  2292  07E6  3002               	movlw	2
  2293  07E7  120A  158A  26E0  120A  118A  	fcall	_stepper
  2294                           
  2295                           ;BOARD_V2.c: 624: down();
  2296  07EC  120A  158A  24ED   	fcall	_down
  2297  07EF  0008               	return
  2298  07F0                     __end_of_remove_notice:	
  2299                           
  2300                           	psect	text2
  2301  0260                     __ptext2:	
  2302 ;; *************** function _place_notice *****************
  2303 ;; Defined at:
  2304 ;;		line 216 in file "BOARD_V2.c"
  2305 ;; Parameters:    Size  Location     Type
  2306 ;;  num             1    wreg     unsigned char 
  2307 ;; Auto vars:     Size  Location     Type
  2308 ;;  num             1    9[COMMON] unsigned char 
  2309 ;; Return value:  Size  Location     Type
  2310 ;;                  1    wreg      void 
  2311 ;; Registers used:
  2312 ;;		wreg, status,2, status,0, pclath, cstack
  2313 ;; Tracked objects:
  2314 ;;		On entry : 0/0
  2315 ;;		On exit  : 0/0
  2316 ;;		Unchanged: 0/0
  2317 ;; Data sizes:     COMMON   BANK0   BANK1   BANK3   BANK2
  2318 ;;      Params:         0       0       0       0       0
  2319 ;;      Locals:         1       0       0       0       0
  2320 ;;      Temps:          3       0       0       0       0
  2321 ;;      Totals:         4       0       0       0       0
  2322 ;;Total ram usage:        4 bytes
  2323 ;; Hardware stack levels used:    1
  2324 ;; Hardware stack levels required when called:    1
  2325 ;; This function calls:
  2326 ;;		_down
  2327 ;;		_stepper
  2328 ;; This function is called by:
  2329 ;;		_main
  2330 ;; This function uses a non-reentrant model
  2331 ;;
  2332                           
  2333                           
  2334                           ;psect for function _place_notice
  2335  0260                     _place_notice:	
  2336                           
  2337                           ;incstack = 0
  2338                           ; Regs used in _place_notice: [wreg+status,2+status,0+pclath+cstack]
  2339                           ;place_notice@num stored from wreg
  2340  0260  00F9               	movwf	place_notice@num
  2341                           
  2342                           ;BOARD_V2.c: 218: if(num == 0)
  2343  0261  0879               	movf	place_notice@num,w
  2344  0262  1D03               	btfss	3,2
  2345  0263  2ABB               	goto	l1785
  2346                           
  2347                           ;BOARD_V2.c: 219: {
  2348                           ;BOARD_V2.c: 221: RE2 = 1;
  2349  0264  1283               	bcf	3,5	;RP0=0, select bank0
  2350  0265  1303               	bcf	3,6	;RP1=0, select bank0
  2351  0266  1509               	bsf	9,2	;volatile
  2352                           
  2353                           ;BOARD_V2.c: 222: stepper(1,1,330);
  2354  0267  01F0               	clrf	stepper@direction
  2355  0268  0AF0               	incf	stepper@direction,f
  2356  0269  304A               	movlw	74
  2357  026A  00F1               	movwf	stepper@size
  2358  026B  3001               	movlw	1
  2359  026C  00F2               	movwf	stepper@size+1
  2360  026D  3001               	movlw	1
  2361  026E  120A  158A  26E0  120A  118A  	fcall	_stepper
  2362                           
  2363                           ;BOARD_V2.c: 224: stepper(2,1,3072);
  2364  0273  01F0               	clrf	stepper@direction
  2365  0274  0AF0               	incf	stepper@direction,f
  2366  0275  3000               	movlw	0
  2367  0276  00F1               	movwf	stepper@size
  2368  0277  300C               	movlw	12
  2369  0278  00F2               	movwf	stepper@size+1
  2370  0279  3002               	movlw	2
  2371  027A  120A  158A  26E0  120A  118A  	fcall	_stepper
  2372                           
  2373                           ;BOARD_V2.c: 228: RE1 = 1;
  2374  027F  1283               	bcf	3,5	;RP0=0, select bank0
  2375  0280  1303               	bcf	3,6	;RP1=0, select bank0
  2376  0281  1489               	bsf	9,1	;volatile
  2377                           
  2378                           ;BOARD_V2.c: 229: RE0 = 0;
  2379  0282  1009               	bcf	9,0	;volatile
  2380                           
  2381                           ;BOARD_V2.c: 230: _delay((unsigned long)((2000)*(4000000/4000.0)));
  2382  0283  300B               	movlw	11
  2383  0284  00F8               	movwf	??_place_notice+2
  2384  0285  3026               	movlw	38
  2385  0286  00F7               	movwf	??_place_notice+1
  2386  0287  3066               	movlw	102
  2387  0288  00F6               	movwf	??_place_notice
  2388  0289                     u1587:	
  2389  0289  0BF6               	decfsz	??_place_notice,f
  2390  028A  2A89               	goto	u1587
  2391  028B  0BF7               	decfsz	??_place_notice+1,f
  2392  028C  2A89               	goto	u1587
  2393  028D  0BF8               	decfsz	??_place_notice+2,f
  2394  028E  2A89               	goto	u1587
  2395  028F  2A90               	nop2
  2396                           
  2397                           ;BOARD_V2.c: 232: RE1 = 0;
  2398  0290  1283               	bcf	3,5	;RP0=0, select bank0
  2399  0291  1303               	bcf	3,6	;RP1=0, select bank0
  2400  0292  1089               	bcf	9,1	;volatile
  2401                           
  2402                           ;BOARD_V2.c: 233: RE0 = 0;
  2403  0293  1009               	bcf	9,0	;volatile
  2404                           
  2405                           ;BOARD_V2.c: 234: RE2 = 0;
  2406  0294  1109               	bcf	9,2	;volatile
  2407                           
  2408                           ;BOARD_V2.c: 236: RE1 = 0;
  2409  0295  1089               	bcf	9,1	;volatile
  2410                           
  2411                           ;BOARD_V2.c: 237: RE0 = 1;
  2412  0296  1409               	bsf	9,0	;volatile
  2413                           
  2414                           ;BOARD_V2.c: 238: _delay((unsigned long)((2000)*(4000000/4000.0)));
  2415  0297  300B               	movlw	11
  2416  0298  00F8               	movwf	??_place_notice+2
  2417  0299  3026               	movlw	38
  2418  029A  00F7               	movwf	??_place_notice+1
  2419  029B  3066               	movlw	102
  2420  029C  00F6               	movwf	??_place_notice
  2421  029D                     u1597:	
  2422  029D  0BF6               	decfsz	??_place_notice,f
  2423  029E  2A9D               	goto	u1597
  2424  029F  0BF7               	decfsz	??_place_notice+1,f
  2425  02A0  2A9D               	goto	u1597
  2426  02A1  0BF8               	decfsz	??_place_notice+2,f
  2427  02A2  2A9D               	goto	u1597
  2428  02A3  2AA4               	nop2
  2429                           
  2430                           ;BOARD_V2.c: 240: RE1 = 0;
  2431  02A4  1283               	bcf	3,5	;RP0=0, select bank0
  2432  02A5  1303               	bcf	3,6	;RP1=0, select bank0
  2433  02A6  1089               	bcf	9,1	;volatile
  2434                           
  2435                           ;BOARD_V2.c: 241: RE0 = 0;
  2436  02A7  1009               	bcf	9,0	;volatile
  2437                           
  2438                           ;BOARD_V2.c: 244: stepper(2,2,3072);
  2439  02A8  3002               	movlw	2
  2440  02A9  00F6               	movwf	??_place_notice
  2441  02AA  0876               	movf	??_place_notice,w
  2442  02AB  00F0               	movwf	stepper@direction
  2443  02AC  3000               	movlw	0
  2444  02AD  00F1               	movwf	stepper@size
  2445  02AE  300C               	movlw	12
  2446  02AF  00F2               	movwf	stepper@size+1
  2447  02B0  3002               	movlw	2
  2448  02B1  120A  158A  26E0  120A  118A  	fcall	_stepper
  2449                           
  2450                           ;BOARD_V2.c: 246: down();
  2451  02B6  120A  158A  24ED  120A  118A  	fcall	_down
  2452  02BB                     l1785:	
  2453                           
  2454                           ;BOARD_V2.c: 247: }
  2455                           ;BOARD_V2.c: 249: if(num == 1)
  2456  02BB  0379               	decf	place_notice@num,w
  2457  02BC  1D03               	btfss	3,2
  2458  02BD  2AFB               	goto	l1815
  2459                           
  2460                           ;BOARD_V2.c: 250: {
  2461                           ;BOARD_V2.c: 252: RE2 = 1;
  2462  02BE  1283               	bcf	3,5	;RP0=0, select bank0
  2463  02BF  1303               	bcf	3,6	;RP1=0, select bank0
  2464  02C0  1509               	bsf	9,2	;volatile
  2465                           
  2466                           ;BOARD_V2.c: 253: stepper(1,1,330);
  2467  02C1  01F0               	clrf	stepper@direction
  2468  02C2  0AF0               	incf	stepper@direction,f
  2469  02C3  304A               	movlw	74
  2470  02C4  00F1               	movwf	stepper@size
  2471  02C5  3001               	movlw	1
  2472  02C6  00F2               	movwf	stepper@size+1
  2473  02C7  3001               	movlw	1
  2474  02C8  120A  158A  26E0  120A  118A  	fcall	_stepper
  2475                           
  2476                           ;BOARD_V2.c: 259: RE1 = 1;
  2477  02CD  1283               	bcf	3,5	;RP0=0, select bank0
  2478  02CE  1303               	bcf	3,6	;RP1=0, select bank0
  2479  02CF  1489               	bsf	9,1	;volatile
  2480                           
  2481                           ;BOARD_V2.c: 260: RE0 = 0;
  2482  02D0  1009               	bcf	9,0	;volatile
  2483                           
  2484                           ;BOARD_V2.c: 261: _delay((unsigned long)((2000)*(4000000/4000.0)));
  2485  02D1  300B               	movlw	11
  2486  02D2  00F8               	movwf	??_place_notice+2
  2487  02D3  3026               	movlw	38
  2488  02D4  00F7               	movwf	??_place_notice+1
  2489  02D5  3066               	movlw	102
  2490  02D6  00F6               	movwf	??_place_notice
  2491  02D7                     u1607:	
  2492  02D7  0BF6               	decfsz	??_place_notice,f
  2493  02D8  2AD7               	goto	u1607
  2494  02D9  0BF7               	decfsz	??_place_notice+1,f
  2495  02DA  2AD7               	goto	u1607
  2496  02DB  0BF8               	decfsz	??_place_notice+2,f
  2497  02DC  2AD7               	goto	u1607
  2498  02DD  2ADE               	nop2
  2499                           
  2500                           ;BOARD_V2.c: 263: RE1 = 0;
  2501  02DE  1283               	bcf	3,5	;RP0=0, select bank0
  2502  02DF  1303               	bcf	3,6	;RP1=0, select bank0
  2503  02E0  1089               	bcf	9,1	;volatile
  2504                           
  2505                           ;BOARD_V2.c: 264: RE0 = 0;
  2506  02E1  1009               	bcf	9,0	;volatile
  2507                           
  2508                           ;BOARD_V2.c: 265: RE2 = 0;
  2509  02E2  1109               	bcf	9,2	;volatile
  2510                           
  2511                           ;BOARD_V2.c: 267: RE1 = 0;
  2512  02E3  1089               	bcf	9,1	;volatile
  2513                           
  2514                           ;BOARD_V2.c: 268: RE0 = 1;
  2515  02E4  1409               	bsf	9,0	;volatile
  2516                           
  2517                           ;BOARD_V2.c: 269: _delay((unsigned long)((2000)*(4000000/4000.0)));
  2518  02E5  300B               	movlw	11
  2519  02E6  00F8               	movwf	??_place_notice+2
  2520  02E7  3026               	movlw	38
  2521  02E8  00F7               	movwf	??_place_notice+1
  2522  02E9  3066               	movlw	102
  2523  02EA  00F6               	movwf	??_place_notice
  2524  02EB                     u1617:	
  2525  02EB  0BF6               	decfsz	??_place_notice,f
  2526  02EC  2AEB               	goto	u1617
  2527  02ED  0BF7               	decfsz	??_place_notice+1,f
  2528  02EE  2AEB               	goto	u1617
  2529  02EF  0BF8               	decfsz	??_place_notice+2,f
  2530  02F0  2AEB               	goto	u1617
  2531  02F1  2AF2               	nop2
  2532                           
  2533                           ;BOARD_V2.c: 271: RE1 = 0;
  2534  02F2  1283               	bcf	3,5	;RP0=0, select bank0
  2535  02F3  1303               	bcf	3,6	;RP1=0, select bank0
  2536  02F4  1089               	bcf	9,1	;volatile
  2537                           
  2538                           ;BOARD_V2.c: 272: RE0 = 0;
  2539  02F5  1009               	bcf	9,0	;volatile
  2540                           
  2541                           ;BOARD_V2.c: 275: down();
  2542  02F6  120A  158A  24ED  120A  118A  	fcall	_down
  2543  02FB                     l1815:	
  2544                           
  2545                           ;BOARD_V2.c: 278: }
  2546                           ;BOARD_V2.c: 280: if(num == 2)
  2547  02FB  3002               	movlw	2
  2548  02FC  0679               	xorwf	place_notice@num,w
  2549  02FD  1D03               	btfss	3,2
  2550  02FE  2B56               	goto	l1845
  2551                           
  2552                           ;BOARD_V2.c: 281: {
  2553                           ;BOARD_V2.c: 283: RE2 = 1;
  2554  02FF  1283               	bcf	3,5	;RP0=0, select bank0
  2555  0300  1303               	bcf	3,6	;RP1=0, select bank0
  2556  0301  1509               	bsf	9,2	;volatile
  2557                           
  2558                           ;BOARD_V2.c: 284: stepper(1,1,330);
  2559  0302  01F0               	clrf	stepper@direction
  2560  0303  0AF0               	incf	stepper@direction,f
  2561  0304  304A               	movlw	74
  2562  0305  00F1               	movwf	stepper@size
  2563  0306  3001               	movlw	1
  2564  0307  00F2               	movwf	stepper@size+1
  2565  0308  3001               	movlw	1
  2566  0309  120A  158A  26E0  120A  118A  	fcall	_stepper
  2567                           
  2568                           ;BOARD_V2.c: 286: stepper(2,2,3072);
  2569  030E  3002               	movlw	2
  2570  030F  00F6               	movwf	??_place_notice
  2571  0310  0876               	movf	??_place_notice,w
  2572  0311  00F0               	movwf	stepper@direction
  2573  0312  3000               	movlw	0
  2574  0313  00F1               	movwf	stepper@size
  2575  0314  300C               	movlw	12
  2576  0315  00F2               	movwf	stepper@size+1
  2577  0316  3002               	movlw	2
  2578  0317  120A  158A  26E0  120A  118A  	fcall	_stepper
  2579                           
  2580                           ;BOARD_V2.c: 290: RE1 = 1;
  2581  031C  1283               	bcf	3,5	;RP0=0, select bank0
  2582  031D  1303               	bcf	3,6	;RP1=0, select bank0
  2583  031E  1489               	bsf	9,1	;volatile
  2584                           
  2585                           ;BOARD_V2.c: 291: RE0 = 0;
  2586  031F  1009               	bcf	9,0	;volatile
  2587                           
  2588                           ;BOARD_V2.c: 292: _delay((unsigned long)((2000)*(4000000/4000.0)));
  2589  0320  300B               	movlw	11
  2590  0321  00F8               	movwf	??_place_notice+2
  2591  0322  3026               	movlw	38
  2592  0323  00F7               	movwf	??_place_notice+1
  2593  0324  3066               	movlw	102
  2594  0325  00F6               	movwf	??_place_notice
  2595  0326                     u1627:	
  2596  0326  0BF6               	decfsz	??_place_notice,f
  2597  0327  2B26               	goto	u1627
  2598  0328  0BF7               	decfsz	??_place_notice+1,f
  2599  0329  2B26               	goto	u1627
  2600  032A  0BF8               	decfsz	??_place_notice+2,f
  2601  032B  2B26               	goto	u1627
  2602  032C  2B2D               	nop2
  2603                           
  2604                           ;BOARD_V2.c: 294: RE1 = 0;
  2605  032D  1283               	bcf	3,5	;RP0=0, select bank0
  2606  032E  1303               	bcf	3,6	;RP1=0, select bank0
  2607  032F  1089               	bcf	9,1	;volatile
  2608                           
  2609                           ;BOARD_V2.c: 295: RE0 = 0;
  2610  0330  1009               	bcf	9,0	;volatile
  2611                           
  2612                           ;BOARD_V2.c: 296: RE2 = 0;
  2613  0331  1109               	bcf	9,2	;volatile
  2614                           
  2615                           ;BOARD_V2.c: 298: RE1 = 0;
  2616  0332  1089               	bcf	9,1	;volatile
  2617                           
  2618                           ;BOARD_V2.c: 299: RE0 = 1;
  2619  0333  1409               	bsf	9,0	;volatile
  2620                           
  2621                           ;BOARD_V2.c: 300: _delay((unsigned long)((2000)*(4000000/4000.0)));
  2622  0334  300B               	movlw	11
  2623  0335  00F8               	movwf	??_place_notice+2
  2624  0336  3026               	movlw	38
  2625  0337  00F7               	movwf	??_place_notice+1
  2626  0338  3066               	movlw	102
  2627  0339  00F6               	movwf	??_place_notice
  2628  033A                     u1637:	
  2629  033A  0BF6               	decfsz	??_place_notice,f
  2630  033B  2B3A               	goto	u1637
  2631  033C  0BF7               	decfsz	??_place_notice+1,f
  2632  033D  2B3A               	goto	u1637
  2633  033E  0BF8               	decfsz	??_place_notice+2,f
  2634  033F  2B3A               	goto	u1637
  2635  0340  2B41               	nop2
  2636                           
  2637                           ;BOARD_V2.c: 302: RE1 = 0;
  2638  0341  1283               	bcf	3,5	;RP0=0, select bank0
  2639  0342  1303               	bcf	3,6	;RP1=0, select bank0
  2640  0343  1089               	bcf	9,1	;volatile
  2641                           
  2642                           ;BOARD_V2.c: 303: RE0 = 0;
  2643  0344  1009               	bcf	9,0	;volatile
  2644                           
  2645                           ;BOARD_V2.c: 306: stepper(2,1,3072);
  2646  0345  01F0               	clrf	stepper@direction
  2647  0346  0AF0               	incf	stepper@direction,f
  2648  0347  3000               	movlw	0
  2649  0348  00F1               	movwf	stepper@size
  2650  0349  300C               	movlw	12
  2651  034A  00F2               	movwf	stepper@size+1
  2652  034B  3002               	movlw	2
  2653  034C  120A  158A  26E0  120A  118A  	fcall	_stepper
  2654                           
  2655                           ;BOARD_V2.c: 307: down();
  2656  0351  120A  158A  24ED  120A  118A  	fcall	_down
  2657  0356                     l1845:	
  2658                           
  2659                           ;BOARD_V2.c: 310: }
  2660                           ;BOARD_V2.c: 312: if(num == 3)
  2661  0356  3003               	movlw	3
  2662  0357  0679               	xorwf	place_notice@num,w
  2663  0358  1D03               	btfss	3,2
  2664  0359  2BB1               	goto	l1875
  2665                           
  2666                           ;BOARD_V2.c: 313: {
  2667                           ;BOARD_V2.c: 314: RE2 = 1;
  2668  035A  1283               	bcf	3,5	;RP0=0, select bank0
  2669  035B  1303               	bcf	3,6	;RP1=0, select bank0
  2670  035C  1509               	bsf	9,2	;volatile
  2671                           
  2672                           ;BOARD_V2.c: 315: stepper(1,1,170);
  2673  035D  01F0               	clrf	stepper@direction
  2674  035E  0AF0               	incf	stepper@direction,f
  2675  035F  30AA               	movlw	170
  2676  0360  00F1               	movwf	stepper@size
  2677  0361  3000               	movlw	0
  2678  0362  00F2               	movwf	stepper@size+1
  2679  0363  3001               	movlw	1
  2680  0364  120A  158A  26E0  120A  118A  	fcall	_stepper
  2681                           
  2682                           ;BOARD_V2.c: 317: stepper(2,1,3072);
  2683  0369  01F0               	clrf	stepper@direction
  2684  036A  0AF0               	incf	stepper@direction,f
  2685  036B  3000               	movlw	0
  2686  036C  00F1               	movwf	stepper@size
  2687  036D  300C               	movlw	12
  2688  036E  00F2               	movwf	stepper@size+1
  2689  036F  3002               	movlw	2
  2690  0370  120A  158A  26E0  120A  118A  	fcall	_stepper
  2691                           
  2692                           ;BOARD_V2.c: 321: RE1 = 1;
  2693  0375  1283               	bcf	3,5	;RP0=0, select bank0
  2694  0376  1303               	bcf	3,6	;RP1=0, select bank0
  2695  0377  1489               	bsf	9,1	;volatile
  2696                           
  2697                           ;BOARD_V2.c: 322: RE0 = 0;
  2698  0378  1009               	bcf	9,0	;volatile
  2699                           
  2700                           ;BOARD_V2.c: 323: _delay((unsigned long)((2000)*(4000000/4000.0)));
  2701  0379  300B               	movlw	11
  2702  037A  00F8               	movwf	??_place_notice+2
  2703  037B  3026               	movlw	38
  2704  037C  00F7               	movwf	??_place_notice+1
  2705  037D  3066               	movlw	102
  2706  037E  00F6               	movwf	??_place_notice
  2707  037F                     u1647:	
  2708  037F  0BF6               	decfsz	??_place_notice,f
  2709  0380  2B7F               	goto	u1647
  2710  0381  0BF7               	decfsz	??_place_notice+1,f
  2711  0382  2B7F               	goto	u1647
  2712  0383  0BF8               	decfsz	??_place_notice+2,f
  2713  0384  2B7F               	goto	u1647
  2714  0385  2B86               	nop2
  2715                           
  2716                           ;BOARD_V2.c: 325: RE1 = 0;
  2717  0386  1283               	bcf	3,5	;RP0=0, select bank0
  2718  0387  1303               	bcf	3,6	;RP1=0, select bank0
  2719  0388  1089               	bcf	9,1	;volatile
  2720                           
  2721                           ;BOARD_V2.c: 326: RE0 = 0;
  2722  0389  1009               	bcf	9,0	;volatile
  2723                           
  2724                           ;BOARD_V2.c: 327: RE2 = 0;
  2725  038A  1109               	bcf	9,2	;volatile
  2726                           
  2727                           ;BOARD_V2.c: 329: RE1 = 0;
  2728  038B  1089               	bcf	9,1	;volatile
  2729                           
  2730                           ;BOARD_V2.c: 330: RE0 = 1;
  2731  038C  1409               	bsf	9,0	;volatile
  2732                           
  2733                           ;BOARD_V2.c: 331: _delay((unsigned long)((2000)*(4000000/4000.0)));
  2734  038D  300B               	movlw	11
  2735  038E  00F8               	movwf	??_place_notice+2
  2736  038F  3026               	movlw	38
  2737  0390  00F7               	movwf	??_place_notice+1
  2738  0391  3066               	movlw	102
  2739  0392  00F6               	movwf	??_place_notice
  2740  0393                     u1657:	
  2741  0393  0BF6               	decfsz	??_place_notice,f
  2742  0394  2B93               	goto	u1657
  2743  0395  0BF7               	decfsz	??_place_notice+1,f
  2744  0396  2B93               	goto	u1657
  2745  0397  0BF8               	decfsz	??_place_notice+2,f
  2746  0398  2B93               	goto	u1657
  2747  0399  2B9A               	nop2
  2748                           
  2749                           ;BOARD_V2.c: 333: RE1 = 0;
  2750  039A  1283               	bcf	3,5	;RP0=0, select bank0
  2751  039B  1303               	bcf	3,6	;RP1=0, select bank0
  2752  039C  1089               	bcf	9,1	;volatile
  2753                           
  2754                           ;BOARD_V2.c: 334: RE0 = 0;
  2755  039D  1009               	bcf	9,0	;volatile
  2756                           
  2757                           ;BOARD_V2.c: 337: stepper(2,2,3072);
  2758  039E  3002               	movlw	2
  2759  039F  00F6               	movwf	??_place_notice
  2760  03A0  0876               	movf	??_place_notice,w
  2761  03A1  00F0               	movwf	stepper@direction
  2762  03A2  3000               	movlw	0
  2763  03A3  00F1               	movwf	stepper@size
  2764  03A4  300C               	movlw	12
  2765  03A5  00F2               	movwf	stepper@size+1
  2766  03A6  3002               	movlw	2
  2767  03A7  120A  158A  26E0  120A  118A  	fcall	_stepper
  2768                           
  2769                           ;BOARD_V2.c: 338: down();
  2770  03AC  120A  158A  24ED  120A  118A  	fcall	_down
  2771  03B1                     l1875:	
  2772                           
  2773                           ;BOARD_V2.c: 341: }
  2774                           ;BOARD_V2.c: 343: if(num == 4)
  2775  03B1  3004               	movlw	4
  2776  03B2  0679               	xorwf	place_notice@num,w
  2777  03B3  1D03               	btfss	3,2
  2778  03B4  2BF2               	goto	l1905
  2779                           
  2780                           ;BOARD_V2.c: 344: {
  2781                           ;BOARD_V2.c: 345: RE2 = 1;
  2782  03B5  1283               	bcf	3,5	;RP0=0, select bank0
  2783  03B6  1303               	bcf	3,6	;RP1=0, select bank0
  2784  03B7  1509               	bsf	9,2	;volatile
  2785                           
  2786                           ;BOARD_V2.c: 346: stepper(1,1,170);
  2787  03B8  01F0               	clrf	stepper@direction
  2788  03B9  0AF0               	incf	stepper@direction,f
  2789  03BA  30AA               	movlw	170
  2790  03BB  00F1               	movwf	stepper@size
  2791  03BC  3000               	movlw	0
  2792  03BD  00F2               	movwf	stepper@size+1
  2793  03BE  3001               	movlw	1
  2794  03BF  120A  158A  26E0  120A  118A  	fcall	_stepper
  2795                           
  2796                           ;BOARD_V2.c: 352: RE1 = 1;
  2797  03C4  1283               	bcf	3,5	;RP0=0, select bank0
  2798  03C5  1303               	bcf	3,6	;RP1=0, select bank0
  2799  03C6  1489               	bsf	9,1	;volatile
  2800                           
  2801                           ;BOARD_V2.c: 353: RE0 = 0;
  2802  03C7  1009               	bcf	9,0	;volatile
  2803                           
  2804                           ;BOARD_V2.c: 354: _delay((unsigned long)((2000)*(4000000/4000.0)));
  2805  03C8  300B               	movlw	11
  2806  03C9  00F8               	movwf	??_place_notice+2
  2807  03CA  3026               	movlw	38
  2808  03CB  00F7               	movwf	??_place_notice+1
  2809  03CC  3066               	movlw	102
  2810  03CD  00F6               	movwf	??_place_notice
  2811  03CE                     u1667:	
  2812  03CE  0BF6               	decfsz	??_place_notice,f
  2813  03CF  2BCE               	goto	u1667
  2814  03D0  0BF7               	decfsz	??_place_notice+1,f
  2815  03D1  2BCE               	goto	u1667
  2816  03D2  0BF8               	decfsz	??_place_notice+2,f
  2817  03D3  2BCE               	goto	u1667
  2818  03D4  2BD5               	nop2
  2819                           
  2820                           ;BOARD_V2.c: 356: RE1 = 0;
  2821  03D5  1283               	bcf	3,5	;RP0=0, select bank0
  2822  03D6  1303               	bcf	3,6	;RP1=0, select bank0
  2823  03D7  1089               	bcf	9,1	;volatile
  2824                           
  2825                           ;BOARD_V2.c: 357: RE0 = 0;
  2826  03D8  1009               	bcf	9,0	;volatile
  2827                           
  2828                           ;BOARD_V2.c: 358: RE2 = 0;
  2829  03D9  1109               	bcf	9,2	;volatile
  2830                           
  2831                           ;BOARD_V2.c: 360: RE1 = 0;
  2832  03DA  1089               	bcf	9,1	;volatile
  2833                           
  2834                           ;BOARD_V2.c: 361: RE0 = 1;
  2835  03DB  1409               	bsf	9,0	;volatile
  2836                           
  2837                           ;BOARD_V2.c: 362: _delay((unsigned long)((2000)*(4000000/4000.0)));
  2838  03DC  300B               	movlw	11
  2839  03DD  00F8               	movwf	??_place_notice+2
  2840  03DE  3026               	movlw	38
  2841  03DF  00F7               	movwf	??_place_notice+1
  2842  03E0  3066               	movlw	102
  2843  03E1  00F6               	movwf	??_place_notice
  2844  03E2                     u1677:	
  2845  03E2  0BF6               	decfsz	??_place_notice,f
  2846  03E3  2BE2               	goto	u1677
  2847  03E4  0BF7               	decfsz	??_place_notice+1,f
  2848  03E5  2BE2               	goto	u1677
  2849  03E6  0BF8               	decfsz	??_place_notice+2,f
  2850  03E7  2BE2               	goto	u1677
  2851  03E8  2BE9               	nop2
  2852                           
  2853                           ;BOARD_V2.c: 364: RE1 = 0;
  2854  03E9  1283               	bcf	3,5	;RP0=0, select bank0
  2855  03EA  1303               	bcf	3,6	;RP1=0, select bank0
  2856  03EB  1089               	bcf	9,1	;volatile
  2857                           
  2858                           ;BOARD_V2.c: 365: RE0 = 0;
  2859  03EC  1009               	bcf	9,0	;volatile
  2860                           
  2861                           ;BOARD_V2.c: 368: down();
  2862  03ED  120A  158A  24ED  120A  118A  	fcall	_down
  2863  03F2                     l1905:	
  2864                           
  2865                           ;BOARD_V2.c: 371: }
  2866                           ;BOARD_V2.c: 373: if(num == 5)
  2867  03F2  3005               	movlw	5
  2868  03F3  0679               	xorwf	place_notice@num,w
  2869  03F4  1D03               	btfss	3,2
  2870  03F5  0008               	return
  2871                           
  2872                           ;BOARD_V2.c: 374: {
  2873                           ;BOARD_V2.c: 375: RE2 = 1;
  2874  03F6  1283               	bcf	3,5	;RP0=0, select bank0
  2875  03F7  1303               	bcf	3,6	;RP1=0, select bank0
  2876  03F8  1509               	bsf	9,2	;volatile
  2877                           
  2878                           ;BOARD_V2.c: 376: stepper(1,1,170);
  2879  03F9  01F0               	clrf	stepper@direction
  2880  03FA  0AF0               	incf	stepper@direction,f
  2881  03FB  30AA               	movlw	170
  2882  03FC  00F1               	movwf	stepper@size
  2883  03FD  3000               	movlw	0
  2884  03FE  00F2               	movwf	stepper@size+1
  2885  03FF  3001               	movlw	1
  2886  0400  120A  158A  26E0  120A  118A  	fcall	_stepper
  2887                           
  2888                           ;BOARD_V2.c: 378: stepper(2,2,3072);
  2889  0405  3002               	movlw	2
  2890  0406  00F6               	movwf	??_place_notice
  2891  0407  0876               	movf	??_place_notice,w
  2892  0408  00F0               	movwf	stepper@direction
  2893  0409  3000               	movlw	0
  2894  040A  00F1               	movwf	stepper@size
  2895  040B  300C               	movlw	12
  2896  040C  00F2               	movwf	stepper@size+1
  2897  040D  3002               	movlw	2
  2898  040E  120A  158A  26E0  120A  118A  	fcall	_stepper
  2899                           
  2900                           ;BOARD_V2.c: 382: RE1 = 1;
  2901  0413  1283               	bcf	3,5	;RP0=0, select bank0
  2902  0414  1303               	bcf	3,6	;RP1=0, select bank0
  2903  0415  1489               	bsf	9,1	;volatile
  2904                           
  2905                           ;BOARD_V2.c: 383: RE0 = 0;
  2906  0416  1009               	bcf	9,0	;volatile
  2907                           
  2908                           ;BOARD_V2.c: 384: _delay((unsigned long)((2000)*(4000000/4000.0)));
  2909  0417  300B               	movlw	11
  2910  0418  00F8               	movwf	??_place_notice+2
  2911  0419  3026               	movlw	38
  2912  041A  00F7               	movwf	??_place_notice+1
  2913  041B  3066               	movlw	102
  2914  041C  00F6               	movwf	??_place_notice
  2915  041D                     u1687:	
  2916  041D  0BF6               	decfsz	??_place_notice,f
  2917  041E  2C1D               	goto	u1687
  2918  041F  0BF7               	decfsz	??_place_notice+1,f
  2919  0420  2C1D               	goto	u1687
  2920  0421  0BF8               	decfsz	??_place_notice+2,f
  2921  0422  2C1D               	goto	u1687
  2922  0423  2C24               	nop2
  2923                           
  2924                           ;BOARD_V2.c: 386: RE1 = 0;
  2925  0424  1283               	bcf	3,5	;RP0=0, select bank0
  2926  0425  1303               	bcf	3,6	;RP1=0, select bank0
  2927  0426  1089               	bcf	9,1	;volatile
  2928                           
  2929                           ;BOARD_V2.c: 387: RE0 = 0;
  2930  0427  1009               	bcf	9,0	;volatile
  2931                           
  2932                           ;BOARD_V2.c: 388: RE2 = 0;
  2933  0428  1109               	bcf	9,2	;volatile
  2934                           
  2935                           ;BOARD_V2.c: 390: RE1 = 0;
  2936  0429  1089               	bcf	9,1	;volatile
  2937                           
  2938                           ;BOARD_V2.c: 391: RE0 = 1;
  2939  042A  1409               	bsf	9,0	;volatile
  2940                           
  2941                           ;BOARD_V2.c: 392: _delay((unsigned long)((2000)*(4000000/4000.0)));
  2942  042B  300B               	movlw	11
  2943  042C  00F8               	movwf	??_place_notice+2
  2944  042D  3026               	movlw	38
  2945  042E  00F7               	movwf	??_place_notice+1
  2946  042F  3066               	movlw	102
  2947  0430  00F6               	movwf	??_place_notice
  2948  0431                     u1697:	
  2949  0431  0BF6               	decfsz	??_place_notice,f
  2950  0432  2C31               	goto	u1697
  2951  0433  0BF7               	decfsz	??_place_notice+1,f
  2952  0434  2C31               	goto	u1697
  2953  0435  0BF8               	decfsz	??_place_notice+2,f
  2954  0436  2C31               	goto	u1697
  2955  0437  2C38               	nop2
  2956                           
  2957                           ;BOARD_V2.c: 394: RE1 = 0;
  2958  0438  1283               	bcf	3,5	;RP0=0, select bank0
  2959  0439  1303               	bcf	3,6	;RP1=0, select bank0
  2960  043A  1089               	bcf	9,1	;volatile
  2961                           
  2962                           ;BOARD_V2.c: 395: RE0 = 0;
  2963  043B  1009               	bcf	9,0	;volatile
  2964                           
  2965                           ;BOARD_V2.c: 398: stepper(2,1,3072);
  2966  043C  01F0               	clrf	stepper@direction
  2967  043D  0AF0               	incf	stepper@direction,f
  2968  043E  3000               	movlw	0
  2969  043F  00F1               	movwf	stepper@size
  2970  0440  300C               	movlw	12
  2971  0441  00F2               	movwf	stepper@size+1
  2972  0442  3002               	movlw	2
  2973  0443  120A  158A  26E0  120A  118A  	fcall	_stepper
  2974                           
  2975                           ;BOARD_V2.c: 400: down();
  2976  0448  120A  158A  24ED   	fcall	_down
  2977  044B  0008               	return
  2978  044C                     __end_of_place_notice:	
  2979                           
  2980                           	psect	text3
  2981  0EE0                     __ptext3:	
  2982 ;; *************** function _stepper *****************
  2983 ;; Defined at:
  2984 ;;		line 632 in file "BOARD_V2.c"
  2985 ;; Parameters:    Size  Location     Type
  2986 ;;  motor           1    wreg     unsigned char 
  2987 ;;  direction       1    0[COMMON] unsigned char 
  2988 ;;  size            2    1[COMMON] int 
  2989 ;; Auto vars:     Size  Location     Type
  2990 ;;  motor           1    0[BANK0 ] unsigned char 
  2991 ;;  x               2    7[BANK0 ] int 
  2992 ;;  x               2    5[BANK0 ] int 
  2993 ;;  count1          2    3[BANK0 ] int 
  2994 ;;  state1          1   12[BANK0 ] unsigned char 
  2995 ;;  last_state1     1   10[BANK0 ] unsigned char 
  2996 ;;  count           2    1[BANK0 ] int 
  2997 ;;  state           1   11[BANK0 ] unsigned char 
  2998 ;;  last_state      1    9[BANK0 ] unsigned char 
  2999 ;; Return value:  Size  Location     Type
  3000 ;;                  1    wreg      void 
  3001 ;; Registers used:
  3002 ;;		wreg, status,2, status,0
  3003 ;; Tracked objects:
  3004 ;;		On entry : 0/0
  3005 ;;		On exit  : 0/0
  3006 ;;		Unchanged: 0/0
  3007 ;; Data sizes:     COMMON   BANK0   BANK1   BANK3   BANK2
  3008 ;;      Params:         3       0       0       0       0
  3009 ;;      Locals:         0      13       0       0       0
  3010 ;;      Temps:          3       0       0       0       0
  3011 ;;      Totals:         6      13       0       0       0
  3012 ;;Total ram usage:       19 bytes
  3013 ;; Hardware stack levels used:    1
  3014 ;; This function calls:
  3015 ;;		Nothing
  3016 ;; This function is called by:
  3017 ;;		_place_notice
  3018 ;;		_remove_notice
  3019 ;; This function uses a non-reentrant model
  3020 ;;
  3021                           
  3022                           
  3023                           ;psect for function _stepper
  3024  0EE0                     _stepper:	
  3025                           
  3026                           ;incstack = 0
  3027                           ; Regs used in _stepper: [wreg+status,2+status,0]
  3028                           ;stepper@motor stored from wreg
  3029  0EE0  1283               	bcf	3,5	;RP0=0, select bank0
  3030  0EE1  1303               	bcf	3,6	;RP1=0, select bank0
  3031  0EE2  00A0               	movwf	stepper@motor
  3032                           
  3033                           ;BOARD_V2.c: 634: if(motor == 1)
  3034  0EE3  0320               	decf	stepper@motor,w
  3035  0EE4  1D03               	btfss	3,2
  3036  0EE5  2F4D               	goto	l1627
  3037                           
  3038                           ;BOARD_V2.c: 635: {
  3039                           ;BOARD_V2.c: 636: if (direction == 1)
  3040  0EE6  0370               	decf	stepper@direction,w
  3041  0EE7  1D03               	btfss	3,2
  3042  0EE8  2F1B               	goto	l1617
  3043                           
  3044                           ;BOARD_V2.c: 637: {
  3045                           ;BOARD_V2.c: 638: int count=0;
  3046  0EE9  01A1               	clrf	stepper@count
  3047  0EEA  01A2               	clrf	stepper@count+1
  3048                           
  3049                           ;BOARD_V2.c: 639: char state,last_state=0;
  3050  0EEB  01A9               	clrf	stepper@last_state
  3051  0EEC                     l1615:	
  3052                           ;BOARD_V2.c: 641: while((2*size)>count)
  3053                           
  3054  0EEC  0872               	movf	stepper@size+1,w
  3055  0EED  00F4               	movwf	??_stepper+1
  3056  0EEE  0871               	movf	stepper@size,w
  3057  0EEF  00F3               	movwf	??_stepper
  3058  0EF0  1003               	clrc
  3059  0EF1  0DF3               	rlf	??_stepper,f
  3060  0EF2  0DF4               	rlf	??_stepper+1,f
  3061  0EF3  0822               	movf	stepper@count+1,w
  3062  0EF4  3A80               	xorlw	128
  3063  0EF5  00F5               	movwf	??_stepper+2
  3064  0EF6  0874               	movf	??_stepper+1,w
  3065  0EF7  3A80               	xorlw	128
  3066  0EF8  0275               	subwf	??_stepper+2,w
  3067  0EF9  1D03               	skipz
  3068  0EFA  2EFD               	goto	u895
  3069  0EFB  0873               	movf	??_stepper,w
  3070  0EFC  0221               	subwf	stepper@count,w
  3071  0EFD                     u895:	
  3072  0EFD  1803               	btfsc	3,0
  3073  0EFE  2F16               	goto	l180
  3074                           
  3075                           ;BOARD_V2.c: 642: {
  3076                           ;BOARD_V2.c: 644: RB1 = 1;
  3077  0EFF  1283               	bcf	3,5	;RP0=0, select bank0
  3078  0F00  1303               	bcf	3,6	;RP1=0, select bank0
  3079  0F01  1486               	bsf	6,1	;volatile
  3080                           
  3081                           ;BOARD_V2.c: 645: RB2 =0;
  3082  0F02  1106               	bcf	6,2	;volatile
  3083                           
  3084                           ;BOARD_V2.c: 646: state = RB0;
  3085  0F03  3000               	movlw	0
  3086  0F04  1806               	btfsc	6,0	;volatile
  3087  0F05  3001               	movlw	1
  3088  0F06  00AB               	movwf	stepper@state
  3089                           
  3090                           ;BOARD_V2.c: 648: if(state != last_state)
  3091  0F07  082B               	movf	stepper@state,w
  3092  0F08  0629               	xorwf	stepper@last_state,w
  3093  0F09  1903               	skipnz
  3094  0F0A  2EEC               	goto	l1615
  3095                           
  3096                           ;BOARD_V2.c: 649: {
  3097                           ;BOARD_V2.c: 651: count++;
  3098  0F0B  3001               	movlw	1
  3099  0F0C  07A1               	addwf	stepper@count,f
  3100  0F0D  1803               	skipnc
  3101  0F0E  0AA2               	incf	stepper@count+1,f
  3102  0F0F  3000               	movlw	0
  3103  0F10  07A2               	addwf	stepper@count+1,f
  3104                           
  3105                           ;BOARD_V2.c: 652: last_state = state;
  3106  0F11  082B               	movf	stepper@state,w
  3107  0F12  00F3               	movwf	??_stepper
  3108  0F13  0873               	movf	??_stepper,w
  3109  0F14  00A9               	movwf	stepper@last_state
  3110  0F15  2EEC               	goto	l1615
  3111  0F16                     l180:	
  3112                           
  3113                           ;BOARD_V2.c: 654: }
  3114                           ;BOARD_V2.c: 656: }
  3115                           ;BOARD_V2.c: 658: RB1 = 0;
  3116  0F16  1283               	bcf	3,5	;RP0=0, select bank0
  3117  0F17  1303               	bcf	3,6	;RP1=0, select bank0
  3118  0F18  1086               	bcf	6,1	;volatile
  3119                           
  3120                           ;BOARD_V2.c: 659: RB2 =0;
  3121  0F19  1106               	bcf	6,2	;volatile
  3122                           
  3123                           ;BOARD_V2.c: 662: }
  3124  0F1A  0008               	return
  3125  0F1B                     l1617:	
  3126                           
  3127                           ;BOARD_V2.c: 663: else
  3128                           ;BOARD_V2.c: 664: {
  3129                           ;BOARD_V2.c: 667: int count1=0;
  3130  0F1B  01A3               	clrf	stepper@count1
  3131  0F1C  01A4               	clrf	stepper@count1+1
  3132                           
  3133                           ;BOARD_V2.c: 668: char state1,last_state1=0;
  3134  0F1D  01AA               	clrf	stepper@last_state1
  3135  0F1E                     l1625:	
  3136                           ;BOARD_V2.c: 670: while((2*size)>count1)
  3137                           
  3138  0F1E  0872               	movf	stepper@size+1,w
  3139  0F1F  00F4               	movwf	??_stepper+1
  3140  0F20  0871               	movf	stepper@size,w
  3141  0F21  00F3               	movwf	??_stepper
  3142  0F22  1003               	clrc
  3143  0F23  0DF3               	rlf	??_stepper,f
  3144  0F24  0DF4               	rlf	??_stepper+1,f
  3145  0F25  0824               	movf	stepper@count1+1,w
  3146  0F26  3A80               	xorlw	128
  3147  0F27  00F5               	movwf	??_stepper+2
  3148  0F28  0874               	movf	??_stepper+1,w
  3149  0F29  3A80               	xorlw	128
  3150  0F2A  0275               	subwf	??_stepper+2,w
  3151  0F2B  1D03               	skipz
  3152  0F2C  2F2F               	goto	u915
  3153  0F2D  0873               	movf	??_stepper,w
  3154  0F2E  0223               	subwf	stepper@count1,w
  3155  0F2F                     u915:	
  3156  0F2F  1803               	btfsc	3,0
  3157  0F30  2F48               	goto	l185
  3158                           
  3159                           ;BOARD_V2.c: 671: {
  3160                           ;BOARD_V2.c: 673: RB1 = 0;
  3161  0F31  1283               	bcf	3,5	;RP0=0, select bank0
  3162  0F32  1303               	bcf	3,6	;RP1=0, select bank0
  3163  0F33  1086               	bcf	6,1	;volatile
  3164                           
  3165                           ;BOARD_V2.c: 674: RB2 = 1;
  3166  0F34  1506               	bsf	6,2	;volatile
  3167                           
  3168                           ;BOARD_V2.c: 675: state1 = RB0;
  3169  0F35  3000               	movlw	0
  3170  0F36  1806               	btfsc	6,0	;volatile
  3171  0F37  3001               	movlw	1
  3172  0F38  00AC               	movwf	stepper@state1
  3173                           
  3174                           ;BOARD_V2.c: 677: if(state1 != last_state1)
  3175  0F39  082C               	movf	stepper@state1,w
  3176  0F3A  062A               	xorwf	stepper@last_state1,w
  3177  0F3B  1903               	skipnz
  3178  0F3C  2F1E               	goto	l1625
  3179                           
  3180                           ;BOARD_V2.c: 678: {
  3181                           ;BOARD_V2.c: 680: count1++;
  3182  0F3D  3001               	movlw	1
  3183  0F3E  07A3               	addwf	stepper@count1,f
  3184  0F3F  1803               	skipnc
  3185  0F40  0AA4               	incf	stepper@count1+1,f
  3186  0F41  3000               	movlw	0
  3187  0F42  07A4               	addwf	stepper@count1+1,f
  3188                           
  3189                           ;BOARD_V2.c: 681: last_state1 = state1;
  3190  0F43  082C               	movf	stepper@state1,w
  3191  0F44  00F3               	movwf	??_stepper
  3192  0F45  0873               	movf	??_stepper,w
  3193  0F46  00AA               	movwf	stepper@last_state1
  3194  0F47  2F1E               	goto	l1625
  3195  0F48                     l185:	
  3196                           
  3197                           ;BOARD_V2.c: 683: }
  3198                           ;BOARD_V2.c: 685: }
  3199                           ;BOARD_V2.c: 687: RB1 = 0;
  3200  0F48  1283               	bcf	3,5	;RP0=0, select bank0
  3201  0F49  1303               	bcf	3,6	;RP1=0, select bank0
  3202  0F4A  1086               	bcf	6,1	;volatile
  3203                           
  3204                           ;BOARD_V2.c: 688: RB2 = 0;
  3205  0F4B  1106               	bcf	6,2	;volatile
  3206                           
  3207                           ;BOARD_V2.c: 694: }
  3208                           ;BOARD_V2.c: 696: }
  3209  0F4C  0008               	return
  3210  0F4D                     l1627:	
  3211                           
  3212                           ;BOARD_V2.c: 699: else
  3213                           ;BOARD_V2.c: 700: {
  3214                           ;BOARD_V2.c: 701: if (direction == 1)
  3215  0F4D  0370               	decf	stepper@direction,w
  3216  0F4E  1D03               	btfss	3,2
  3217  0F4F  2FA8               	goto	l1657
  3218                           
  3219                           ;BOARD_V2.c: 702: {
  3220                           ;BOARD_V2.c: 704: for(int x=0;x<size;x++)
  3221  0F50  01A5               	clrf	stepper@x
  3222  0F51  01A6               	clrf	stepper@x+1
  3223  0F52                     l188:	
  3224  0F52  0826               	movf	stepper@x+1,w
  3225  0F53  3A80               	xorlw	128
  3226  0F54  00F3               	movwf	??_stepper
  3227  0F55  0872               	movf	stepper@size+1,w
  3228  0F56  3A80               	xorlw	128
  3229  0F57  0273               	subwf	??_stepper,w
  3230  0F58  1D03               	skipz
  3231  0F59  2F5C               	goto	u935
  3232  0F5A  0871               	movf	stepper@size,w
  3233  0F5B  0225               	subwf	stepper@x,w
  3234  0F5C                     u935:	
  3235  0F5C  1803               	btfsc	3,0
  3236  0F5D  2FA3               	goto	l190
  3237                           
  3238                           ;BOARD_V2.c: 705: {
  3239                           ;BOARD_V2.c: 707: RB4=1;
  3240  0F5E  1283               	bcf	3,5	;RP0=0, select bank0
  3241  0F5F  1303               	bcf	3,6	;RP1=0, select bank0
  3242  0F60  1606               	bsf	6,4	;volatile
  3243                           
  3244                           ;BOARD_V2.c: 708: RB5=1;
  3245  0F61  1686               	bsf	6,5	;volatile
  3246                           
  3247                           ;BOARD_V2.c: 709: RB6=0;
  3248  0F62  1306               	bcf	6,6	;volatile
  3249                           
  3250                           ;BOARD_V2.c: 710: RB7=0;
  3251  0F63  1386               	bcf	6,7	;volatile
  3252                           
  3253                           ;BOARD_V2.c: 711: _delay((unsigned long)((2)*(4000000/4000.0)));
  3254  0F64  3003               	movlw	3
  3255  0F65  00F4               	movwf	??_stepper+1
  3256  0F66  3097               	movlw	151
  3257  0F67  00F3               	movwf	??_stepper
  3258  0F68                     u1707:	
  3259  0F68  0BF3               	decfsz	??_stepper,f
  3260  0F69  2F68               	goto	u1707
  3261  0F6A  0BF4               	decfsz	??_stepper+1,f
  3262  0F6B  2F68               	goto	u1707
  3263  0F6C  2F6D               	nop2
  3264                           
  3265                           ;BOARD_V2.c: 712: RB4=0;
  3266  0F6D  1283               	bcf	3,5	;RP0=0, select bank0
  3267  0F6E  1303               	bcf	3,6	;RP1=0, select bank0
  3268  0F6F  1206               	bcf	6,4	;volatile
  3269                           
  3270                           ;BOARD_V2.c: 713: RB5=1;
  3271  0F70  1686               	bsf	6,5	;volatile
  3272                           
  3273                           ;BOARD_V2.c: 714: RB6=1;
  3274  0F71  1706               	bsf	6,6	;volatile
  3275                           
  3276                           ;BOARD_V2.c: 715: RB7=0;
  3277  0F72  1386               	bcf	6,7	;volatile
  3278                           
  3279                           ;BOARD_V2.c: 716: _delay((unsigned long)((2)*(4000000/4000.0)));
  3280  0F73  3003               	movlw	3
  3281  0F74  00F4               	movwf	??_stepper+1
  3282  0F75  3097               	movlw	151
  3283  0F76  00F3               	movwf	??_stepper
  3284  0F77                     u1717:	
  3285  0F77  0BF3               	decfsz	??_stepper,f
  3286  0F78  2F77               	goto	u1717
  3287  0F79  0BF4               	decfsz	??_stepper+1,f
  3288  0F7A  2F77               	goto	u1717
  3289  0F7B  2F7C               	nop2
  3290                           
  3291                           ;BOARD_V2.c: 717: RB4=0;
  3292  0F7C  1283               	bcf	3,5	;RP0=0, select bank0
  3293  0F7D  1303               	bcf	3,6	;RP1=0, select bank0
  3294  0F7E  1206               	bcf	6,4	;volatile
  3295                           
  3296                           ;BOARD_V2.c: 718: RB5=0;
  3297  0F7F  1286               	bcf	6,5	;volatile
  3298                           
  3299                           ;BOARD_V2.c: 719: RB6=1;
  3300  0F80  1706               	bsf	6,6	;volatile
  3301                           
  3302                           ;BOARD_V2.c: 720: RB7=1;
  3303  0F81  1786               	bsf	6,7	;volatile
  3304                           
  3305                           ;BOARD_V2.c: 721: _delay((unsigned long)((2)*(4000000/4000.0)));
  3306  0F82  3003               	movlw	3
  3307  0F83  00F4               	movwf	??_stepper+1
  3308  0F84  3097               	movlw	151
  3309  0F85  00F3               	movwf	??_stepper
  3310  0F86                     u1727:	
  3311  0F86  0BF3               	decfsz	??_stepper,f
  3312  0F87  2F86               	goto	u1727
  3313  0F88  0BF4               	decfsz	??_stepper+1,f
  3314  0F89  2F86               	goto	u1727
  3315  0F8A  2F8B               	nop2
  3316                           
  3317                           ;BOARD_V2.c: 722: RB4=1;
  3318  0F8B  1283               	bcf	3,5	;RP0=0, select bank0
  3319  0F8C  1303               	bcf	3,6	;RP1=0, select bank0
  3320  0F8D  1606               	bsf	6,4	;volatile
  3321                           
  3322                           ;BOARD_V2.c: 723: RB5=0;
  3323  0F8E  1286               	bcf	6,5	;volatile
  3324                           
  3325                           ;BOARD_V2.c: 724: RB6=0;
  3326  0F8F  1306               	bcf	6,6	;volatile
  3327                           
  3328                           ;BOARD_V2.c: 725: RB7=1;
  3329  0F90  1786               	bsf	6,7	;volatile
  3330                           
  3331                           ;BOARD_V2.c: 726: _delay((unsigned long)((2)*(4000000/4000.0)));
  3332  0F91  3003               	movlw	3
  3333  0F92  00F4               	movwf	??_stepper+1
  3334  0F93  3097               	movlw	151
  3335  0F94  00F3               	movwf	??_stepper
  3336  0F95                     u1737:	
  3337  0F95  0BF3               	decfsz	??_stepper,f
  3338  0F96  2F95               	goto	u1737
  3339  0F97  0BF4               	decfsz	??_stepper+1,f
  3340  0F98  2F95               	goto	u1737
  3341  0F99  2F9A               	nop2
  3342  0F9A  3001               	movlw	1
  3343  0F9B  1283               	bcf	3,5	;RP0=0, select bank0
  3344  0F9C  1303               	bcf	3,6	;RP1=0, select bank0
  3345  0F9D  07A5               	addwf	stepper@x,f
  3346  0F9E  1803               	skipnc
  3347  0F9F  0AA6               	incf	stepper@x+1,f
  3348  0FA0  3000               	movlw	0
  3349  0FA1  07A6               	addwf	stepper@x+1,f
  3350  0FA2  2F52               	goto	l188
  3351  0FA3                     l190:	
  3352                           
  3353                           ;BOARD_V2.c: 728: }
  3354                           ;BOARD_V2.c: 729: RB4=0;
  3355  0FA3  1283               	bcf	3,5	;RP0=0, select bank0
  3356  0FA4  1303               	bcf	3,6	;RP1=0, select bank0
  3357  0FA5  1206               	bcf	6,4	;volatile
  3358                           
  3359                           ;BOARD_V2.c: 730: RB7=0;
  3360  0FA6  1386               	bcf	6,7	;volatile
  3361                           
  3362                           ;BOARD_V2.c: 731: }
  3363  0FA7  0008               	return
  3364  0FA8                     l1657:	
  3365                           
  3366                           ;BOARD_V2.c: 732: else
  3367                           ;BOARD_V2.c: 733: {
  3368                           ;BOARD_V2.c: 735: for(int x=0;x<size;x++)
  3369  0FA8  01A7               	clrf	stepper@x_147
  3370  0FA9  01A8               	clrf	stepper@x_147+1
  3371  0FAA                     l192:	
  3372  0FAA  0828               	movf	stepper@x_147+1,w
  3373  0FAB  3A80               	xorlw	128
  3374  0FAC  00F3               	movwf	??_stepper
  3375  0FAD  0872               	movf	stepper@size+1,w
  3376  0FAE  3A80               	xorlw	128
  3377  0FAF  0273               	subwf	??_stepper,w
  3378  0FB0  1D03               	skipz
  3379  0FB1  2FB4               	goto	u945
  3380  0FB2  0871               	movf	stepper@size,w
  3381  0FB3  0227               	subwf	stepper@x_147,w
  3382  0FB4                     u945:	
  3383  0FB4  1803               	btfsc	3,0
  3384  0FB5  2FFB               	goto	l194
  3385                           
  3386                           ;BOARD_V2.c: 736: {
  3387                           ;BOARD_V2.c: 738: RB4=1;
  3388  0FB6  1283               	bcf	3,5	;RP0=0, select bank0
  3389  0FB7  1303               	bcf	3,6	;RP1=0, select bank0
  3390  0FB8  1606               	bsf	6,4	;volatile
  3391                           
  3392                           ;BOARD_V2.c: 739: RB5=0;
  3393  0FB9  1286               	bcf	6,5	;volatile
  3394                           
  3395                           ;BOARD_V2.c: 740: RB6=0;
  3396  0FBA  1306               	bcf	6,6	;volatile
  3397                           
  3398                           ;BOARD_V2.c: 741: RB7=1;
  3399  0FBB  1786               	bsf	6,7	;volatile
  3400                           
  3401                           ;BOARD_V2.c: 742: _delay((unsigned long)((2)*(4000000/4000.0)));
  3402  0FBC  3003               	movlw	3
  3403  0FBD  00F4               	movwf	??_stepper+1
  3404  0FBE  3097               	movlw	151
  3405  0FBF  00F3               	movwf	??_stepper
  3406  0FC0                     u1747:	
  3407  0FC0  0BF3               	decfsz	??_stepper,f
  3408  0FC1  2FC0               	goto	u1747
  3409  0FC2  0BF4               	decfsz	??_stepper+1,f
  3410  0FC3  2FC0               	goto	u1747
  3411  0FC4  2FC5               	nop2
  3412                           
  3413                           ;BOARD_V2.c: 743: RB4=0;
  3414  0FC5  1283               	bcf	3,5	;RP0=0, select bank0
  3415  0FC6  1303               	bcf	3,6	;RP1=0, select bank0
  3416  0FC7  1206               	bcf	6,4	;volatile
  3417                           
  3418                           ;BOARD_V2.c: 744: RB5=0;
  3419  0FC8  1286               	bcf	6,5	;volatile
  3420                           
  3421                           ;BOARD_V2.c: 745: RB6=1;
  3422  0FC9  1706               	bsf	6,6	;volatile
  3423                           
  3424                           ;BOARD_V2.c: 746: RB7=1;
  3425  0FCA  1786               	bsf	6,7	;volatile
  3426                           
  3427                           ;BOARD_V2.c: 747: _delay((unsigned long)((2)*(4000000/4000.0)));
  3428  0FCB  3003               	movlw	3
  3429  0FCC  00F4               	movwf	??_stepper+1
  3430  0FCD  3097               	movlw	151
  3431  0FCE  00F3               	movwf	??_stepper
  3432  0FCF                     u1757:	
  3433  0FCF  0BF3               	decfsz	??_stepper,f
  3434  0FD0  2FCF               	goto	u1757
  3435  0FD1  0BF4               	decfsz	??_stepper+1,f
  3436  0FD2  2FCF               	goto	u1757
  3437  0FD3  2FD4               	nop2
  3438                           
  3439                           ;BOARD_V2.c: 748: RB4=0;
  3440  0FD4  1283               	bcf	3,5	;RP0=0, select bank0
  3441  0FD5  1303               	bcf	3,6	;RP1=0, select bank0
  3442  0FD6  1206               	bcf	6,4	;volatile
  3443                           
  3444                           ;BOARD_V2.c: 749: RB5=1;
  3445  0FD7  1686               	bsf	6,5	;volatile
  3446                           
  3447                           ;BOARD_V2.c: 750: RB6=1;
  3448  0FD8  1706               	bsf	6,6	;volatile
  3449                           
  3450                           ;BOARD_V2.c: 751: RB7=0;
  3451  0FD9  1386               	bcf	6,7	;volatile
  3452                           
  3453                           ;BOARD_V2.c: 752: _delay((unsigned long)((2)*(4000000/4000.0)));
  3454  0FDA  3003               	movlw	3
  3455  0FDB  00F4               	movwf	??_stepper+1
  3456  0FDC  3097               	movlw	151
  3457  0FDD  00F3               	movwf	??_stepper
  3458  0FDE                     u1767:	
  3459  0FDE  0BF3               	decfsz	??_stepper,f
  3460  0FDF  2FDE               	goto	u1767
  3461  0FE0  0BF4               	decfsz	??_stepper+1,f
  3462  0FE1  2FDE               	goto	u1767
  3463  0FE2  2FE3               	nop2
  3464                           
  3465                           ;BOARD_V2.c: 753: RB4=1;
  3466  0FE3  1283               	bcf	3,5	;RP0=0, select bank0
  3467  0FE4  1303               	bcf	3,6	;RP1=0, select bank0
  3468  0FE5  1606               	bsf	6,4	;volatile
  3469                           
  3470                           ;BOARD_V2.c: 754: RB5=1;
  3471  0FE6  1686               	bsf	6,5	;volatile
  3472                           
  3473                           ;BOARD_V2.c: 755: RB6=0;
  3474  0FE7  1306               	bcf	6,6	;volatile
  3475                           
  3476                           ;BOARD_V2.c: 756: RB7=0;
  3477  0FE8  1386               	bcf	6,7	;volatile
  3478                           
  3479                           ;BOARD_V2.c: 757: _delay((unsigned long)((2)*(4000000/4000.0)));
  3480  0FE9  3003               	movlw	3
  3481  0FEA  00F4               	movwf	??_stepper+1
  3482  0FEB  3097               	movlw	151
  3483  0FEC  00F3               	movwf	??_stepper
  3484  0FED                     u1777:	
  3485  0FED  0BF3               	decfsz	??_stepper,f
  3486  0FEE  2FED               	goto	u1777
  3487  0FEF  0BF4               	decfsz	??_stepper+1,f
  3488  0FF0  2FED               	goto	u1777
  3489  0FF1  2FF2               	nop2
  3490  0FF2  3001               	movlw	1
  3491  0FF3  1283               	bcf	3,5	;RP0=0, select bank0
  3492  0FF4  1303               	bcf	3,6	;RP1=0, select bank0
  3493  0FF5  07A7               	addwf	stepper@x_147,f
  3494  0FF6  1803               	skipnc
  3495  0FF7  0AA8               	incf	stepper@x_147+1,f
  3496  0FF8  3000               	movlw	0
  3497  0FF9  07A8               	addwf	stepper@x_147+1,f
  3498  0FFA  2FAA               	goto	l192
  3499  0FFB                     l194:	
  3500                           
  3501                           ;BOARD_V2.c: 759: }
  3502                           ;BOARD_V2.c: 760: RB4=0;
  3503  0FFB  1283               	bcf	3,5	;RP0=0, select bank0
  3504  0FFC  1303               	bcf	3,6	;RP1=0, select bank0
  3505  0FFD  1206               	bcf	6,4	;volatile
  3506                           
  3507                           ;BOARD_V2.c: 761: RB5=0;
  3508  0FFE  1286               	bcf	6,5	;volatile
  3509  0FFF  0008               	return
  3510  1000                     __end_of_stepper:	
  3511                           
  3512                           	psect	text4
  3513  0CED                     __ptext4:	
  3514 ;; *************** function _down *****************
  3515 ;; Defined at:
  3516 ;;		line 771 in file "BOARD_V2.c"
  3517 ;; Parameters:    Size  Location     Type
  3518 ;;		None
  3519 ;; Auto vars:     Size  Location     Type
  3520 ;;		None
  3521 ;; Return value:  Size  Location     Type
  3522 ;;                  1    wreg      void 
  3523 ;; Registers used:
  3524 ;;		None
  3525 ;; Tracked objects:
  3526 ;;		On entry : 0/0
  3527 ;;		On exit  : 0/0
  3528 ;;		Unchanged: 0/0
  3529 ;; Data sizes:     COMMON   BANK0   BANK1   BANK3   BANK2
  3530 ;;      Params:         0       0       0       0       0
  3531 ;;      Locals:         0       0       0       0       0
  3532 ;;      Temps:          0       0       0       0       0
  3533 ;;      Totals:         0       0       0       0       0
  3534 ;;Total ram usage:        0 bytes
  3535 ;; Hardware stack levels used:    1
  3536 ;; This function calls:
  3537 ;;		Nothing
  3538 ;; This function is called by:
  3539 ;;		_place_notice
  3540 ;;		_remove_notice
  3541 ;; This function uses a non-reentrant model
  3542 ;;
  3543                           
  3544                           
  3545                           ;psect for function _down
  3546  0CED                     _down:	
  3547  0CED                     l198:	
  3548                           ;BOARD_V2.c: 773: while(RC0 == 1)
  3549                           
  3550                           ;incstack = 0
  3551                           ; Regs used in _down: []
  3552                           
  3553  0CED  1283               	bcf	3,5	;RP0=0, select bank0
  3554  0CEE  1303               	bcf	3,6	;RP1=0, select bank0
  3555  0CEF  1C07               	btfss	7,0	;volatile
  3556  0CF0  2CF4               	goto	l200
  3557                           
  3558                           ;BOARD_V2.c: 774: {
  3559                           ;BOARD_V2.c: 775: RB1 = 0;
  3560  0CF1  1086               	bcf	6,1	;volatile
  3561                           
  3562                           ;BOARD_V2.c: 776: RB2 = 1;
  3563  0CF2  1506               	bsf	6,2	;volatile
  3564  0CF3  2CED               	goto	l198
  3565  0CF4                     l200:	
  3566                           
  3567                           ;BOARD_V2.c: 777: }
  3568                           ;BOARD_V2.c: 780: RB1 = 0;
  3569  0CF4  1086               	bcf	6,1	;volatile
  3570                           
  3571                           ;BOARD_V2.c: 781: RB2 = 0;
  3572  0CF5  1106               	bcf	6,2	;volatile
  3573  0CF6  0008               	return
  3574  0CF7                     __end_of_down:	
  3575                           
  3576                           	psect	text5
  3577  000B                     __ptext5:	
  3578 ;; *************** function _itoa *****************
  3579 ;; Defined at:
  3580 ;;		line 4 in file "C:\Program Files (x86)\Microchip\xc8\v1.37\sources\common\itoa.c"
  3581 ;; Parameters:    Size  Location     Type
  3582 ;;  buf             1    wreg     PTR unsigned char 
  3583 ;;		 -> main@s(20), 
  3584 ;;  val             2    4[BANK0 ] int 
  3585 ;;  base            2    6[BANK0 ] int 
  3586 ;; Auto vars:     Size  Location     Type
  3587 ;;  buf             1    9[BANK0 ] PTR unsigned char 
  3588 ;;		 -> main@s(20), 
  3589 ;;  cp              1    8[BANK0 ] PTR unsigned char 
  3590 ;;		 -> main@s(20), 
  3591 ;; Return value:  Size  Location     Type
  3592 ;;                  1    wreg      PTR unsigned char 
  3593 ;; Registers used:
  3594 ;;		wreg, fsr0l, fsr0h, status,2, status,0, pclath, cstack
  3595 ;; Tracked objects:
  3596 ;;		On entry : 0/0
  3597 ;;		On exit  : 0/0
  3598 ;;		Unchanged: 0/0
  3599 ;; Data sizes:     COMMON   BANK0   BANK1   BANK3   BANK2
  3600 ;;      Params:         0       4       0       0       0
  3601 ;;      Locals:         0       2       0       0       0
  3602 ;;      Temps:          1       0       0       0       0
  3603 ;;      Totals:         1       6       0       0       0
  3604 ;;Total ram usage:        7 bytes
  3605 ;; Hardware stack levels used:    1
  3606 ;; Hardware stack levels required when called:    2
  3607 ;; This function calls:
  3608 ;;		_utoa
  3609 ;; This function is called by:
  3610 ;;		_main
  3611 ;; This function uses a non-reentrant model
  3612 ;;
  3613                           
  3614                           
  3615                           ;psect for function _itoa
  3616  000B                     _itoa:	
  3617                           
  3618                           ;incstack = 0
  3619                           ; Regs used in _itoa: [wreg-fsr0h+status,2+status,0+pclath+cstack]
  3620                           ;itoa@buf stored from wreg
  3621  000B  1283               	bcf	3,5	;RP0=0, select bank0
  3622  000C  1303               	bcf	3,6	;RP1=0, select bank0
  3623  000D  00A9               	movwf	itoa@buf
  3624  000E  0829               	movf	itoa@buf,w
  3625  000F  00FD               	movwf	??_itoa
  3626  0010  087D               	movf	??_itoa,w
  3627  0011  00A8               	movwf	itoa@cp
  3628  0012  1FA5               	btfss	itoa@val+1,7
  3629  0013  2824               	goto	l2185
  3630  0014  302D               	movlw	45
  3631  0015  00FD               	movwf	??_itoa
  3632  0016  0829               	movf	itoa@buf,w
  3633  0017  0084               	movwf	4
  3634  0018  087D               	movf	??_itoa,w
  3635  0019  1383               	bcf	3,7	;select IRP bank0
  3636  001A  0080               	movwf	0
  3637  001B  3001               	movlw	1
  3638  001C  00FD               	movwf	??_itoa
  3639  001D  087D               	movf	??_itoa,w
  3640  001E  07A9               	addwf	itoa@buf,f
  3641  001F  09A4               	comf	itoa@val,f
  3642  0020  09A5               	comf	itoa@val+1,f
  3643  0021  0AA4               	incf	itoa@val,f
  3644  0022  1903               	skipnz
  3645  0023  0AA5               	incf	itoa@val+1,f
  3646  0024                     l2185:	
  3647  0024  0825               	movf	itoa@val+1,w
  3648  0025  00F9               	movwf	utoa@val+1
  3649  0026  0824               	movf	itoa@val,w
  3650  0027  00F8               	movwf	utoa@val
  3651  0028  0827               	movf	itoa@base+1,w
  3652  0029  00FB               	movwf	utoa@base+1
  3653  002A  0826               	movf	itoa@base,w
  3654  002B  00FA               	movwf	utoa@base
  3655  002C  0829               	movf	itoa@buf,w
  3656  002D  120A  118A  2031   	fcall	_utoa
  3657  0030  0008               	return
  3658  0031                     __end_of_itoa:	
  3659                           ;	Return value of _itoa is never used
  3660                           
  3661                           
  3662                           	psect	text6
  3663  0031                     __ptext6:	
  3664 ;; *************** function _utoa *****************
  3665 ;; Defined at:
  3666 ;;		line 17 in file "C:\Program Files (x86)\Microchip\xc8\v1.37\sources\common\itoa.c"
  3667 ;; Parameters:    Size  Location     Type
  3668 ;;  buf             1    wreg     PTR unsigned char 
  3669 ;;		 -> main@s(20), 
  3670 ;;  val             2    8[COMMON] unsigned int 
  3671 ;;  base            2   10[COMMON] int 
  3672 ;; Auto vars:     Size  Location     Type
  3673 ;;  buf             1    3[BANK0 ] PTR unsigned char 
  3674 ;;		 -> main@s(20), 
  3675 ;;  v               2    0[BANK0 ] unsigned int 
  3676 ;;  c               1    2[BANK0 ] unsigned char 
  3677 ;; Return value:  Size  Location     Type
  3678 ;;                  1    wreg      PTR unsigned char 
  3679 ;; Registers used:
  3680 ;;		wreg, fsr0l, fsr0h, status,2, status,0, pclath, cstack
  3681 ;; Tracked objects:
  3682 ;;		On entry : 0/0
  3683 ;;		On exit  : 0/0
  3684 ;;		Unchanged: 0/0
  3685 ;; Data sizes:     COMMON   BANK0   BANK1   BANK3   BANK2
  3686 ;;      Params:         4       0       0       0       0
  3687 ;;      Locals:         0       4       0       0       0
  3688 ;;      Temps:          1       0       0       0       0
  3689 ;;      Totals:         5       4       0       0       0
  3690 ;;Total ram usage:        9 bytes
  3691 ;; Hardware stack levels used:    1
  3692 ;; Hardware stack levels required when called:    1
  3693 ;; This function calls:
  3694 ;;		___lwdiv
  3695 ;;		___lwmod
  3696 ;; This function is called by:
  3697 ;;		_itoa
  3698 ;; This function uses a non-reentrant model
  3699 ;;
  3700                           
  3701                           
  3702                           ;psect for function _utoa
  3703  0031                     _utoa:	
  3704                           
  3705                           ;incstack = 0
  3706                           ; Regs used in _utoa: [wreg-fsr0h+status,2+status,0+pclath+cstack]
  3707                           ;utoa@buf stored from wreg
  3708  0031  1283               	bcf	3,5	;RP0=0, select bank0
  3709  0032  1303               	bcf	3,6	;RP1=0, select bank0
  3710  0033  00A3               	movwf	utoa@buf
  3711  0034  0879               	movf	utoa@val+1,w
  3712  0035  00A1               	movwf	utoa@v+1
  3713  0036  0878               	movf	utoa@val,w
  3714  0037  00A0               	movwf	utoa@v
  3715  0038                     l1689:	
  3716  0038  087B               	movf	utoa@base+1,w
  3717  0039  00F1               	movwf	___lwdiv@divisor+1
  3718  003A  087A               	movf	utoa@base,w
  3719  003B  00F0               	movwf	___lwdiv@divisor
  3720  003C  0821               	movf	utoa@v+1,w
  3721  003D  00F3               	movwf	___lwdiv@dividend+1
  3722  003E  0820               	movf	utoa@v,w
  3723  003F  00F2               	movwf	___lwdiv@dividend
  3724  0040  120A  158A  25C1  120A  118A  	fcall	___lwdiv
  3725  0045  0871               	movf	?___lwdiv+1,w
  3726  0046  1283               	bcf	3,5	;RP0=0, select bank0
  3727  0047  1303               	bcf	3,6	;RP1=0, select bank0
  3728  0048  00A1               	movwf	utoa@v+1
  3729  0049  0870               	movf	?___lwdiv,w
  3730  004A  00A0               	movwf	utoa@v
  3731  004B  3001               	movlw	1
  3732  004C  00FC               	movwf	??_utoa
  3733  004D  087C               	movf	??_utoa,w
  3734  004E  07A3               	addwf	utoa@buf,f
  3735  004F  0820               	movf	utoa@v,w
  3736  0050  0421               	iorwf	utoa@v+1,w
  3737  0051  1D03               	btfss	3,2
  3738  0052  2838               	goto	l1689
  3739  0053  0823               	movf	utoa@buf,w
  3740  0054  0084               	movwf	4
  3741  0055  1383               	bcf	3,7	;select IRP bank0
  3742  0056  0180               	clrf	0
  3743  0057  3001               	movlw	1
  3744  0058  02A3               	subwf	utoa@buf,f
  3745  0059                     l1699:	
  3746  0059  087B               	movf	utoa@base+1,w
  3747  005A  00F1               	movwf	___lwmod@divisor+1
  3748  005B  087A               	movf	utoa@base,w
  3749  005C  00F0               	movwf	___lwmod@divisor
  3750  005D  0879               	movf	utoa@val+1,w
  3751  005E  00F3               	movwf	___lwmod@dividend+1
  3752  005F  0878               	movf	utoa@val,w
  3753  0060  00F2               	movwf	___lwmod@dividend
  3754  0061  120A  158A  2556  120A  118A  	fcall	___lwmod
  3755  0066  0870               	movf	?___lwmod,w
  3756  0067  00FC               	movwf	??_utoa
  3757  0068  087C               	movf	??_utoa,w
  3758  0069  1283               	bcf	3,5	;RP0=0, select bank0
  3759  006A  1303               	bcf	3,6	;RP1=0, select bank0
  3760  006B  00A2               	movwf	utoa@c
  3761  006C  087B               	movf	utoa@base+1,w
  3762  006D  00F1               	movwf	___lwdiv@divisor+1
  3763  006E  087A               	movf	utoa@base,w
  3764  006F  00F0               	movwf	___lwdiv@divisor
  3765  0070  0879               	movf	utoa@val+1,w
  3766  0071  00F3               	movwf	___lwdiv@dividend+1
  3767  0072  0878               	movf	utoa@val,w
  3768  0073  00F2               	movwf	___lwdiv@dividend
  3769  0074  120A  158A  25C1  120A  118A  	fcall	___lwdiv
  3770  0079  0871               	movf	?___lwdiv+1,w
  3771  007A  00F9               	movwf	utoa@val+1
  3772  007B  0870               	movf	?___lwdiv,w
  3773  007C  00F8               	movwf	utoa@val
  3774  007D  300A               	movlw	10
  3775  007E  1283               	bcf	3,5	;RP0=0, select bank0
  3776  007F  1303               	bcf	3,6	;RP1=0, select bank0
  3777  0080  0222               	subwf	utoa@c,w
  3778  0081  1C03               	skipc
  3779  0082  2887               	goto	l552
  3780  0083  3007               	movlw	7
  3781  0084  00FC               	movwf	??_utoa
  3782  0085  087C               	movf	??_utoa,w
  3783  0086  07A2               	addwf	utoa@c,f
  3784  0087                     l552:	
  3785  0087  3030               	movlw	48
  3786  0088  00FC               	movwf	??_utoa
  3787  0089  087C               	movf	??_utoa,w
  3788  008A  07A2               	addwf	utoa@c,f
  3789  008B  0822               	movf	utoa@c,w
  3790  008C  00FC               	movwf	??_utoa
  3791  008D  0823               	movf	utoa@buf,w
  3792  008E  0084               	movwf	4
  3793  008F  087C               	movf	??_utoa,w
  3794  0090  1383               	bcf	3,7	;select IRP bank0
  3795  0091  0080               	movwf	0
  3796  0092  3001               	movlw	1
  3797  0093  02A3               	subwf	utoa@buf,f
  3798  0094  0878               	movf	utoa@val,w
  3799  0095  0479               	iorwf	utoa@val+1,w
  3800  0096  1D03               	btfss	3,2
  3801  0097  2859               	goto	l1699
  3802                           
  3803                           ;	Return value of _utoa is never used
  3804  0098  3001               	movlw	1
  3805  0099  00FC               	movwf	??_utoa
  3806  009A  087C               	movf	??_utoa,w
  3807  009B  07A3               	addwf	utoa@buf,f
  3808  009C  0008               	return
  3809  009D                     __end_of_utoa:	
  3810                           
  3811                           	psect	text7
  3812  0D56                     __ptext7:	
  3813 ;; *************** function ___lwmod *****************
  3814 ;; Defined at:
  3815 ;;		line 6 in file "C:\Program Files (x86)\Microchip\xc8\v1.37\sources\common\lwmod.c"
  3816 ;; Parameters:    Size  Location     Type
  3817 ;;  divisor         2    0[COMMON] unsigned int 
  3818 ;;  dividend        2    2[COMMON] unsigned int 
  3819 ;; Auto vars:     Size  Location     Type
  3820 ;;  counter         1    5[COMMON] unsigned char 
  3821 ;; Return value:  Size  Location     Type
  3822 ;;                  2    0[COMMON] unsigned int 
  3823 ;; Registers used:
  3824 ;;		wreg, status,2, status,0
  3825 ;; Tracked objects:
  3826 ;;		On entry : 0/0
  3827 ;;		On exit  : 0/0
  3828 ;;		Unchanged: 0/0
  3829 ;; Data sizes:     COMMON   BANK0   BANK1   BANK3   BANK2
  3830 ;;      Params:         4       0       0       0       0
  3831 ;;      Locals:         1       0       0       0       0
  3832 ;;      Temps:          1       0       0       0       0
  3833 ;;      Totals:         6       0       0       0       0
  3834 ;;Total ram usage:        6 bytes
  3835 ;; Hardware stack levels used:    1
  3836 ;; This function calls:
  3837 ;;		Nothing
  3838 ;; This function is called by:
  3839 ;;		_utoa
  3840 ;; This function uses a non-reentrant model
  3841 ;;
  3842                           
  3843                           
  3844                           ;psect for function ___lwmod
  3845  0D56                     ___lwmod:	
  3846                           
  3847                           ;incstack = 0
  3848                           ; Regs used in ___lwmod: [wreg+status,2+status,0]
  3849  0D56  0870               	movf	___lwmod@divisor,w
  3850  0D57  0471               	iorwf	___lwmod@divisor+1,w
  3851  0D58  1903               	btfsc	3,2
  3852  0D59  2D83               	goto	l1569
  3853  0D5A  01F5               	clrf	___lwmod@counter
  3854  0D5B  0AF5               	incf	___lwmod@counter,f
  3855  0D5C                     l1559:	
  3856  0D5C  1BF1               	btfsc	___lwmod@divisor+1,7
  3857  0D5D  2D6A               	goto	l1561
  3858  0D5E  3001               	movlw	1
  3859  0D5F                     u805:	
  3860  0D5F  1003               	clrc
  3861  0D60  0DF0               	rlf	___lwmod@divisor,f
  3862  0D61  0DF1               	rlf	___lwmod@divisor+1,f
  3863  0D62  3EFF               	addlw	-1
  3864  0D63  1D03               	skipz
  3865  0D64  2D5F               	goto	u805
  3866  0D65  3001               	movlw	1
  3867  0D66  00F4               	movwf	??___lwmod
  3868  0D67  0874               	movf	??___lwmod,w
  3869  0D68  07F5               	addwf	___lwmod@counter,f
  3870  0D69  2D5C               	goto	l1559
  3871  0D6A                     l1561:	
  3872  0D6A  0871               	movf	___lwmod@divisor+1,w
  3873  0D6B  0273               	subwf	___lwmod@dividend+1,w
  3874  0D6C  1D03               	skipz
  3875  0D6D  2D70               	goto	u825
  3876  0D6E  0870               	movf	___lwmod@divisor,w
  3877  0D6F  0272               	subwf	___lwmod@dividend,w
  3878  0D70                     u825:	
  3879  0D70  1C03               	skipc
  3880  0D71  2D78               	goto	l1565
  3881  0D72  0870               	movf	___lwmod@divisor,w
  3882  0D73  02F2               	subwf	___lwmod@dividend,f
  3883  0D74  0871               	movf	___lwmod@divisor+1,w
  3884  0D75  1C03               	skipc
  3885  0D76  03F3               	decf	___lwmod@dividend+1,f
  3886  0D77  02F3               	subwf	___lwmod@dividend+1,f
  3887  0D78                     l1565:	
  3888  0D78  3001               	movlw	1
  3889  0D79                     u835:	
  3890  0D79  1003               	clrc
  3891  0D7A  0CF1               	rrf	___lwmod@divisor+1,f
  3892  0D7B  0CF0               	rrf	___lwmod@divisor,f
  3893  0D7C  3EFF               	addlw	-1
  3894  0D7D  1D03               	skipz
  3895  0D7E  2D79               	goto	u835
  3896  0D7F  3001               	movlw	1
  3897  0D80  02F5               	subwf	___lwmod@counter,f
  3898  0D81  1D03               	btfss	3,2
  3899  0D82  2D6A               	goto	l1561
  3900  0D83                     l1569:	
  3901  0D83  0873               	movf	___lwmod@dividend+1,w
  3902  0D84  00F1               	movwf	?___lwmod+1
  3903  0D85  0872               	movf	___lwmod@dividend,w
  3904  0D86  00F0               	movwf	?___lwmod
  3905  0D87  0008               	return
  3906  0D88                     __end_of___lwmod:	
  3907                           
  3908                           	psect	text8
  3909  0DC1                     __ptext8:	
  3910 ;; *************** function ___lwdiv *****************
  3911 ;; Defined at:
  3912 ;;		line 6 in file "C:\Program Files (x86)\Microchip\xc8\v1.37\sources\common\lwdiv.c"
  3913 ;; Parameters:    Size  Location     Type
  3914 ;;  divisor         2    0[COMMON] unsigned int 
  3915 ;;  dividend        2    2[COMMON] unsigned int 
  3916 ;; Auto vars:     Size  Location     Type
  3917 ;;  quotient        2    5[COMMON] unsigned int 
  3918 ;;  counter         1    7[COMMON] unsigned char 
  3919 ;; Return value:  Size  Location     Type
  3920 ;;                  2    0[COMMON] unsigned int 
  3921 ;; Registers used:
  3922 ;;		wreg, status,2, status,0
  3923 ;; Tracked objects:
  3924 ;;		On entry : 0/0
  3925 ;;		On exit  : 0/0
  3926 ;;		Unchanged: 0/0
  3927 ;; Data sizes:     COMMON   BANK0   BANK1   BANK3   BANK2
  3928 ;;      Params:         4       0       0       0       0
  3929 ;;      Locals:         3       0       0       0       0
  3930 ;;      Temps:          1       0       0       0       0
  3931 ;;      Totals:         8       0       0       0       0
  3932 ;;Total ram usage:        8 bytes
  3933 ;; Hardware stack levels used:    1
  3934 ;; This function calls:
  3935 ;;		Nothing
  3936 ;; This function is called by:
  3937 ;;		_utoa
  3938 ;; This function uses a non-reentrant model
  3939 ;;
  3940                           
  3941                           
  3942                           ;psect for function ___lwdiv
  3943  0DC1                     ___lwdiv:	
  3944                           
  3945                           ;incstack = 0
  3946                           ; Regs used in ___lwdiv: [wreg+status,2+status,0]
  3947  0DC1  01F5               	clrf	___lwdiv@quotient
  3948  0DC2  01F6               	clrf	___lwdiv@quotient+1
  3949  0DC3  0870               	movf	___lwdiv@divisor,w
  3950  0DC4  0471               	iorwf	___lwdiv@divisor+1,w
  3951  0DC5  1903               	btfsc	3,2
  3952  0DC6  2DF8               	goto	l1547
  3953  0DC7  01F7               	clrf	___lwdiv@counter
  3954  0DC8  0AF7               	incf	___lwdiv@counter,f
  3955  0DC9                     l1535:	
  3956  0DC9  1BF1               	btfsc	___lwdiv@divisor+1,7
  3957  0DCA  2DD7               	goto	l1537
  3958  0DCB  3001               	movlw	1
  3959  0DCC                     u735:	
  3960  0DCC  1003               	clrc
  3961  0DCD  0DF0               	rlf	___lwdiv@divisor,f
  3962  0DCE  0DF1               	rlf	___lwdiv@divisor+1,f
  3963  0DCF  3EFF               	addlw	-1
  3964  0DD0  1D03               	skipz
  3965  0DD1  2DCC               	goto	u735
  3966  0DD2  3001               	movlw	1
  3967  0DD3  00F4               	movwf	??___lwdiv
  3968  0DD4  0874               	movf	??___lwdiv,w
  3969  0DD5  07F7               	addwf	___lwdiv@counter,f
  3970  0DD6  2DC9               	goto	l1535
  3971  0DD7                     l1537:	
  3972  0DD7  3001               	movlw	1
  3973  0DD8                     u755:	
  3974  0DD8  1003               	clrc
  3975  0DD9  0DF5               	rlf	___lwdiv@quotient,f
  3976  0DDA  0DF6               	rlf	___lwdiv@quotient+1,f
  3977  0DDB  3EFF               	addlw	-1
  3978  0DDC  1D03               	skipz
  3979  0DDD  2DD8               	goto	u755
  3980  0DDE  0871               	movf	___lwdiv@divisor+1,w
  3981  0DDF  0273               	subwf	___lwdiv@dividend+1,w
  3982  0DE0  1D03               	skipz
  3983  0DE1  2DE4               	goto	u765
  3984  0DE2  0870               	movf	___lwdiv@divisor,w
  3985  0DE3  0272               	subwf	___lwdiv@dividend,w
  3986  0DE4                     u765:	
  3987  0DE4  1C03               	skipc
  3988  0DE5  2DED               	goto	l1543
  3989  0DE6  0870               	movf	___lwdiv@divisor,w
  3990  0DE7  02F2               	subwf	___lwdiv@dividend,f
  3991  0DE8  0871               	movf	___lwdiv@divisor+1,w
  3992  0DE9  1C03               	skipc
  3993  0DEA  03F3               	decf	___lwdiv@dividend+1,f
  3994  0DEB  02F3               	subwf	___lwdiv@dividend+1,f
  3995  0DEC  1475               	bsf	___lwdiv@quotient,0
  3996  0DED                     l1543:	
  3997  0DED  3001               	movlw	1
  3998  0DEE                     u775:	
  3999  0DEE  1003               	clrc
  4000  0DEF  0CF1               	rrf	___lwdiv@divisor+1,f
  4001  0DF0  0CF0               	rrf	___lwdiv@divisor,f
  4002  0DF1  3EFF               	addlw	-1
  4003  0DF2  1D03               	skipz
  4004  0DF3  2DEE               	goto	u775
  4005  0DF4  3001               	movlw	1
  4006  0DF5  02F7               	subwf	___lwdiv@counter,f
  4007  0DF6  1D03               	btfss	3,2
  4008  0DF7  2DD7               	goto	l1537
  4009  0DF8                     l1547:	
  4010  0DF8  0876               	movf	___lwdiv@quotient+1,w
  4011  0DF9  00F1               	movwf	?___lwdiv+1
  4012  0DFA  0875               	movf	___lwdiv@quotient,w
  4013  0DFB  00F0               	movwf	?___lwdiv
  4014  0DFC  0008               	return
  4015  0DFD                     __end_of___lwdiv:	
  4016                           
  4017                           	psect	text9
  4018  0DFD                     __ptext9:	
  4019 ;; *************** function _Lcd_Write_String *****************
  4020 ;; Defined at:
  4021 ;;		line 97 in file "lcd.h"
  4022 ;; Parameters:    Size  Location     Type
  4023 ;;  a               2    5[COMMON] PTR unsigned char 
  4024 ;;		 -> main@s(20), STR_1(14), 
  4025 ;; Auto vars:     Size  Location     Type
  4026 ;;  i               2   10[COMMON] int 
  4027 ;; Return value:  Size  Location     Type
  4028 ;;                  1    wreg      void 
  4029 ;; Registers used:
  4030 ;;		wreg, fsr0l, fsr0h, status,2, status,0, btemp+1, pclath, cstack
  4031 ;; Tracked objects:
  4032 ;;		On entry : 0/0
  4033 ;;		On exit  : 0/0
  4034 ;;		Unchanged: 0/0
  4035 ;; Data sizes:     COMMON   BANK0   BANK1   BANK3   BANK2
  4036 ;;      Params:         2       0       0       0       0
  4037 ;;      Locals:         2       0       0       0       0
  4038 ;;      Temps:          3       0       0       0       0
  4039 ;;      Totals:         7       0       0       0       0
  4040 ;;Total ram usage:        7 bytes
  4041 ;; Hardware stack levels used:    1
  4042 ;; Hardware stack levels required when called:    2
  4043 ;; This function calls:
  4044 ;;		_Lcd_Write_Char
  4045 ;; This function is called by:
  4046 ;;		_main
  4047 ;; This function uses a non-reentrant model
  4048 ;;
  4049                           
  4050                           
  4051                           ;psect for function _Lcd_Write_String
  4052  0DFD                     _Lcd_Write_String:	
  4053                           
  4054                           ;lcd.h: 99: int i;
  4055                           ;lcd.h: 100: for(i=0;a[i]!='\0';i++)
  4056                           
  4057                           ;incstack = 0
  4058                           ; Regs used in _Lcd_Write_String: [wreg-fsr0h+status,2+status,0+btemp+1+pclath+cstack]
  4059  0DFD  01FA               	clrf	Lcd_Write_String@i
  4060  0DFE  01FB               	clrf	Lcd_Write_String@i+1
  4061  0DFF                     l1753:	
  4062  0DFF  087A               	movf	Lcd_Write_String@i,w
  4063  0E00  0775               	addwf	Lcd_Write_String@a,w
  4064  0E01  00F8               	movwf	??_Lcd_Write_String+1
  4065  0E02  0876               	movf	Lcd_Write_String@a+1,w
  4066  0E03  00F7               	movwf	??_Lcd_Write_String
  4067  0E04  1803               	skipnc
  4068  0E05  0AF7               	incf	??_Lcd_Write_String,f
  4069  0E06  1BFA               	btfsc	Lcd_Write_String@i,7
  4070  0E07  03F7               	decf	??_Lcd_Write_String,f
  4071  0E08  0877               	movf	??_Lcd_Write_String,w
  4072  0E09  00F9               	movwf	??_Lcd_Write_String+2
  4073  0E0A  0879               	movf	??_Lcd_Write_String+2,w
  4074  0E0B  1283               	bcf	3,5	;RP0=0, select bank0
  4075  0E0C  1303               	bcf	3,6	;RP1=0, select bank0
  4076  0E0D  00FF               	movwf	127
  4077  0E0E  0878               	movf	??_Lcd_Write_String+1,w
  4078  0E0F  0084               	movwf	4
  4079  0E10  120A  158A  2000  120A  158A  	fcall	stringtab
  4080  0E15  3A00               	xorlw	0
  4081  0E16  1903               	btfsc	3,2
  4082  0E17  0008               	return
  4083                           
  4084                           ;lcd.h: 101: {
  4085                           ;lcd.h: 102: Lcd_Write_Char(a[i]);
  4086  0E18  087A               	movf	Lcd_Write_String@i,w
  4087  0E19  0775               	addwf	Lcd_Write_String@a,w
  4088  0E1A  00F8               	movwf	??_Lcd_Write_String+1
  4089  0E1B  0876               	movf	Lcd_Write_String@a+1,w
  4090  0E1C  00F7               	movwf	??_Lcd_Write_String
  4091  0E1D  1803               	skipnc
  4092  0E1E  0AF7               	incf	??_Lcd_Write_String,f
  4093  0E1F  1BFA               	btfsc	Lcd_Write_String@i,7
  4094  0E20  03F7               	decf	??_Lcd_Write_String,f
  4095  0E21  0877               	movf	??_Lcd_Write_String,w
  4096  0E22  00F9               	movwf	??_Lcd_Write_String+2
  4097  0E23  0879               	movf	??_Lcd_Write_String+2,w
  4098  0E24  1283               	bcf	3,5	;RP0=0, select bank0
  4099  0E25  1303               	bcf	3,6	;RP1=0, select bank0
  4100  0E26  00FF               	movwf	127
  4101  0E27  0878               	movf	??_Lcd_Write_String+1,w
  4102  0E28  0084               	movwf	4
  4103  0E29  120A  158A  2000  120A  158A  	fcall	stringtab
  4104  0E2E  120A  158A  2588  120A  158A  	fcall	_Lcd_Write_Char
  4105  0E33  3001               	movlw	1
  4106  0E34  07FA               	addwf	Lcd_Write_String@i,f
  4107  0E35  1803               	skipnc
  4108  0E36  0AFB               	incf	Lcd_Write_String@i+1,f
  4109  0E37  3000               	movlw	0
  4110  0E38  07FB               	addwf	Lcd_Write_String@i+1,f
  4111  0E39  2DFF               	goto	l1753
  4112  0E3A                     __end_of_Lcd_Write_String:	
  4113                           
  4114                           	psect	text10
  4115  0D88                     __ptext10:	
  4116 ;; *************** function _Lcd_Write_Char *****************
  4117 ;; Defined at:
  4118 ;;		line 81 in file "lcd.h"
  4119 ;; Parameters:    Size  Location     Type
  4120 ;;  a               1    wreg     unsigned char 
  4121 ;; Auto vars:     Size  Location     Type
  4122 ;;  a               1    4[COMMON] unsigned char 
  4123 ;;  y               1    3[COMMON] unsigned char 
  4124 ;;  temp            1    2[COMMON] unsigned char 
  4125 ;; Return value:  Size  Location     Type
  4126 ;;                  1    wreg      void 
  4127 ;; Registers used:
  4128 ;;		wreg, status,2, status,0, pclath, cstack
  4129 ;; Tracked objects:
  4130 ;;		On entry : 0/0
  4131 ;;		On exit  : 0/0
  4132 ;;		Unchanged: 0/0
  4133 ;; Data sizes:     COMMON   BANK0   BANK1   BANK3   BANK2
  4134 ;;      Params:         0       0       0       0       0
  4135 ;;      Locals:         3       0       0       0       0
  4136 ;;      Temps:          1       0       0       0       0
  4137 ;;      Totals:         4       0       0       0       0
  4138 ;;Total ram usage:        4 bytes
  4139 ;; Hardware stack levels used:    1
  4140 ;; Hardware stack levels required when called:    1
  4141 ;; This function calls:
  4142 ;;		_Lcd_Port
  4143 ;; This function is called by:
  4144 ;;		_Lcd_Write_String
  4145 ;; This function uses a non-reentrant model
  4146 ;;
  4147                           
  4148                           
  4149                           ;psect for function _Lcd_Write_Char
  4150  0D88                     _Lcd_Write_Char:	
  4151                           
  4152                           ;incstack = 0
  4153                           ; Regs used in _Lcd_Write_Char: [wreg+status,2+status,0+pclath+cstack]
  4154                           ;Lcd_Write_Char@a stored from wreg
  4155  0D88  00F4               	movwf	Lcd_Write_Char@a
  4156                           
  4157                           ;lcd.h: 83: char temp,y;
  4158                           ;lcd.h: 84: temp = a&0x0F;
  4159  0D89  0874               	movf	Lcd_Write_Char@a,w
  4160  0D8A  390F               	andlw	15
  4161  0D8B  00F1               	movwf	??_Lcd_Write_Char
  4162  0D8C  0871               	movf	??_Lcd_Write_Char,w
  4163  0D8D  00F2               	movwf	Lcd_Write_Char@temp
  4164                           
  4165                           ;lcd.h: 85: y = a&0xF0;
  4166  0D8E  0874               	movf	Lcd_Write_Char@a,w
  4167  0D8F  39F0               	andlw	240
  4168  0D90  00F1               	movwf	??_Lcd_Write_Char
  4169  0D91  0871               	movf	??_Lcd_Write_Char,w
  4170  0D92  00F3               	movwf	Lcd_Write_Char@y
  4171                           
  4172                           ;lcd.h: 86: RD2 = 1;
  4173  0D93  1283               	bcf	3,5	;RP0=0, select bank0
  4174  0D94  1303               	bcf	3,6	;RP1=0, select bank0
  4175  0D95  1508               	bsf	8,2	;volatile
  4176                           
  4177                           ;lcd.h: 87: Lcd_Port(y>>4);
  4178  0D96  0873               	movf	Lcd_Write_Char@y,w
  4179  0D97  00F1               	movwf	??_Lcd_Write_Char
  4180  0D98  3004               	movlw	4
  4181  0D99                     u855:	
  4182  0D99  1003               	clrc
  4183  0D9A  0CF1               	rrf	??_Lcd_Write_Char,f
  4184  0D9B  3EFF               	addlw	-1
  4185  0D9C  1D03               	skipz
  4186  0D9D  2D99               	goto	u855
  4187  0D9E  0871               	movf	??_Lcd_Write_Char,w
  4188  0D9F  120A  158A  2508  120A  158A  	fcall	_Lcd_Port
  4189                           
  4190                           ;lcd.h: 88: RD3 = 1;
  4191  0DA4  1283               	bcf	3,5	;RP0=0, select bank0
  4192  0DA5  1303               	bcf	3,6	;RP1=0, select bank0
  4193  0DA6  1588               	bsf	8,3	;volatile
  4194                           
  4195                           ;lcd.h: 89: _delay((unsigned long)((80)*(4000000/4000000.0)));
  4196  0DA7  301A               	movlw	26
  4197  0DA8  00F1               	movwf	??_Lcd_Write_Char
  4198  0DA9                     u1787:	
  4199  0DA9  0BF1               	decfsz	??_Lcd_Write_Char,f
  4200  0DAA  2DA9               	goto	u1787
  4201  0DAB  0000               	nop
  4202                           
  4203                           ;lcd.h: 90: RD3 = 0;
  4204  0DAC  1283               	bcf	3,5	;RP0=0, select bank0
  4205  0DAD  1303               	bcf	3,6	;RP1=0, select bank0
  4206  0DAE  1188               	bcf	8,3	;volatile
  4207                           
  4208                           ;lcd.h: 91: Lcd_Port(temp);
  4209  0DAF  0872               	movf	Lcd_Write_Char@temp,w
  4210  0DB0  120A  158A  2508  120A  158A  	fcall	_Lcd_Port
  4211                           
  4212                           ;lcd.h: 92: RD3 = 1;
  4213  0DB5  1283               	bcf	3,5	;RP0=0, select bank0
  4214  0DB6  1303               	bcf	3,6	;RP1=0, select bank0
  4215  0DB7  1588               	bsf	8,3	;volatile
  4216                           
  4217                           ;lcd.h: 93: _delay((unsigned long)((80)*(4000000/4000000.0)));
  4218  0DB8  301A               	movlw	26
  4219  0DB9  00F1               	movwf	??_Lcd_Write_Char
  4220  0DBA                     u1797:	
  4221  0DBA  0BF1               	decfsz	??_Lcd_Write_Char,f
  4222  0DBB  2DBA               	goto	u1797
  4223  0DBC  0000               	nop
  4224                           
  4225                           ;lcd.h: 94: RD3 = 0;
  4226  0DBD  1283               	bcf	3,5	;RP0=0, select bank0
  4227  0DBE  1303               	bcf	3,6	;RP1=0, select bank0
  4228  0DBF  1188               	bcf	8,3	;volatile
  4229  0DC0  0008               	return
  4230  0DC1                     __end_of_Lcd_Write_Char:	
  4231                           
  4232                           	psect	text11
  4233  0E3A                     __ptext11:	
  4234 ;; *************** function _Lcd_Set_Cursor *****************
  4235 ;; Defined at:
  4236 ;;		line 41 in file "lcd.h"
  4237 ;; Parameters:    Size  Location     Type
  4238 ;;  a               1    wreg     unsigned char 
  4239 ;;  b               1    4[COMMON] unsigned char 
  4240 ;; Auto vars:     Size  Location     Type
  4241 ;;  a               1    7[COMMON] unsigned char 
  4242 ;;  temp            1   10[COMMON] unsigned char 
  4243 ;;  y               1    9[COMMON] unsigned char 
  4244 ;;  z               1    8[COMMON] unsigned char 
  4245 ;; Return value:  Size  Location     Type
  4246 ;;                  1    wreg      void 
  4247 ;; Registers used:
  4248 ;;		wreg, status,2, status,0, pclath, cstack
  4249 ;; Tracked objects:
  4250 ;;		On entry : 0/0
  4251 ;;		On exit  : 0/0
  4252 ;;		Unchanged: 0/0
  4253 ;; Data sizes:     COMMON   BANK0   BANK1   BANK3   BANK2
  4254 ;;      Params:         1       0       0       0       0
  4255 ;;      Locals:         4       0       0       0       0
  4256 ;;      Temps:          2       0       0       0       0
  4257 ;;      Totals:         7       0       0       0       0
  4258 ;;Total ram usage:        7 bytes
  4259 ;; Hardware stack levels used:    1
  4260 ;; Hardware stack levels required when called:    2
  4261 ;; This function calls:
  4262 ;;		_Lcd_Cmd
  4263 ;; This function is called by:
  4264 ;;		_main
  4265 ;; This function uses a non-reentrant model
  4266 ;;
  4267                           
  4268                           
  4269                           ;psect for function _Lcd_Set_Cursor
  4270  0E3A                     _Lcd_Set_Cursor:	
  4271                           
  4272                           ;incstack = 0
  4273                           ; Regs used in _Lcd_Set_Cursor: [wreg+status,2+status,0+pclath+cstack]
  4274                           ;Lcd_Set_Cursor@a stored from wreg
  4275  0E3A  00F7               	movwf	Lcd_Set_Cursor@a
  4276                           
  4277                           ;lcd.h: 43: char temp,z,y;
  4278                           ;lcd.h: 44: if(a == 1)
  4279  0E3B  0377               	decf	Lcd_Set_Cursor@a,w
  4280  0E3C  1D03               	btfss	3,2
  4281  0E3D  2E5F               	goto	l1727
  4282                           
  4283                           ;lcd.h: 45: {
  4284                           ;lcd.h: 46: temp = 0x80 + b - 1;
  4285  0E3E  0874               	movf	Lcd_Set_Cursor@b,w
  4286  0E3F  3E7F               	addlw	127
  4287  0E40  00F5               	movwf	??_Lcd_Set_Cursor
  4288  0E41  0875               	movf	??_Lcd_Set_Cursor,w
  4289  0E42  00FA               	movwf	Lcd_Set_Cursor@temp
  4290                           
  4291                           ;lcd.h: 47: z = temp>>4;
  4292  0E43  087A               	movf	Lcd_Set_Cursor@temp,w
  4293  0E44  00F5               	movwf	??_Lcd_Set_Cursor
  4294  0E45  3004               	movlw	4
  4295  0E46                     u1005:	
  4296  0E46  1003               	clrc
  4297  0E47  0CF5               	rrf	??_Lcd_Set_Cursor,f
  4298  0E48  3EFF               	addlw	-1
  4299  0E49  1D03               	skipz
  4300  0E4A  2E46               	goto	u1005
  4301  0E4B  0875               	movf	??_Lcd_Set_Cursor,w
  4302  0E4C  00F6               	movwf	??_Lcd_Set_Cursor+1
  4303  0E4D  0876               	movf	??_Lcd_Set_Cursor+1,w
  4304  0E4E  00F8               	movwf	Lcd_Set_Cursor@z
  4305                           
  4306                           ;lcd.h: 48: y = temp & 0x0F;
  4307  0E4F  087A               	movf	Lcd_Set_Cursor@temp,w
  4308  0E50  390F               	andlw	15
  4309  0E51  00F5               	movwf	??_Lcd_Set_Cursor
  4310  0E52  0875               	movf	??_Lcd_Set_Cursor,w
  4311  0E53  00F9               	movwf	Lcd_Set_Cursor@y
  4312                           
  4313                           ;lcd.h: 49: Lcd_Cmd(z);
  4314  0E54  0878               	movf	Lcd_Set_Cursor@z,w
  4315  0E55  120A  158A  2522  120A  158A  	fcall	_Lcd_Cmd
  4316                           
  4317                           ;lcd.h: 50: Lcd_Cmd(y);
  4318  0E5A  0879               	movf	Lcd_Set_Cursor@y,w
  4319  0E5B  120A  158A  2522   	fcall	_Lcd_Cmd
  4320                           
  4321                           ;lcd.h: 51: }
  4322  0E5E  0008               	return
  4323  0E5F                     l1727:	
  4324                           
  4325                           ;lcd.h: 52: else if(a == 2)
  4326  0E5F  3002               	movlw	2
  4327  0E60  0677               	xorwf	Lcd_Set_Cursor@a,w
  4328  0E61  1D03               	btfss	3,2
  4329  0E62  0008               	return
  4330                           
  4331                           ;lcd.h: 53: {
  4332                           ;lcd.h: 54: temp = 0xC0 + b - 1;
  4333  0E63  0874               	movf	Lcd_Set_Cursor@b,w
  4334  0E64  3EBF               	addlw	191
  4335  0E65  00F5               	movwf	??_Lcd_Set_Cursor
  4336  0E66  0875               	movf	??_Lcd_Set_Cursor,w
  4337  0E67  00FA               	movwf	Lcd_Set_Cursor@temp
  4338                           
  4339                           ;lcd.h: 55: z = temp>>4;
  4340  0E68  087A               	movf	Lcd_Set_Cursor@temp,w
  4341  0E69  00F5               	movwf	??_Lcd_Set_Cursor
  4342  0E6A  3004               	movlw	4
  4343  0E6B                     u1025:	
  4344  0E6B  1003               	clrc
  4345  0E6C  0CF5               	rrf	??_Lcd_Set_Cursor,f
  4346  0E6D  3EFF               	addlw	-1
  4347  0E6E  1D03               	skipz
  4348  0E6F  2E6B               	goto	u1025
  4349  0E70  0875               	movf	??_Lcd_Set_Cursor,w
  4350  0E71  00F6               	movwf	??_Lcd_Set_Cursor+1
  4351  0E72  0876               	movf	??_Lcd_Set_Cursor+1,w
  4352  0E73  00F8               	movwf	Lcd_Set_Cursor@z
  4353                           
  4354                           ;lcd.h: 56: y = temp & 0x0F;
  4355  0E74  087A               	movf	Lcd_Set_Cursor@temp,w
  4356  0E75  390F               	andlw	15
  4357  0E76  00F5               	movwf	??_Lcd_Set_Cursor
  4358  0E77  0875               	movf	??_Lcd_Set_Cursor,w
  4359  0E78  00F9               	movwf	Lcd_Set_Cursor@y
  4360                           
  4361                           ;lcd.h: 57: Lcd_Cmd(z);
  4362  0E79  0878               	movf	Lcd_Set_Cursor@z,w
  4363  0E7A  120A  158A  2522  120A  158A  	fcall	_Lcd_Cmd
  4364                           
  4365                           ;lcd.h: 58: Lcd_Cmd(y);
  4366  0E7F  0879               	movf	Lcd_Set_Cursor@y,w
  4367  0E80  120A  158A  2522   	fcall	_Lcd_Cmd
  4368  0E83  0008               	return
  4369  0E84                     __end_of_Lcd_Set_Cursor:	
  4370                           
  4371                           	psect	text12
  4372  0E84                     __ptext12:	
  4373 ;; *************** function _Lcd_Init *****************
  4374 ;; Defined at:
  4375 ;;		line 62 in file "lcd.h"
  4376 ;; Parameters:    Size  Location     Type
  4377 ;;		None
  4378 ;; Auto vars:     Size  Location     Type
  4379 ;;		None
  4380 ;; Return value:  Size  Location     Type
  4381 ;;                  1    wreg      void 
  4382 ;; Registers used:
  4383 ;;		wreg, status,2, status,0, pclath, cstack
  4384 ;; Tracked objects:
  4385 ;;		On entry : 0/0
  4386 ;;		On exit  : 0/0
  4387 ;;		Unchanged: 0/0
  4388 ;; Data sizes:     COMMON   BANK0   BANK1   BANK3   BANK2
  4389 ;;      Params:         0       0       0       0       0
  4390 ;;      Locals:         0       0       0       0       0
  4391 ;;      Temps:          2       0       0       0       0
  4392 ;;      Totals:         2       0       0       0       0
  4393 ;;Total ram usage:        2 bytes
  4394 ;; Hardware stack levels used:    1
  4395 ;; Hardware stack levels required when called:    2
  4396 ;; This function calls:
  4397 ;;		_Lcd_Cmd
  4398 ;;		_Lcd_Port
  4399 ;; This function is called by:
  4400 ;;		_main
  4401 ;; This function uses a non-reentrant model
  4402 ;;
  4403                           
  4404                           
  4405                           ;psect for function _Lcd_Init
  4406  0E84                     _Lcd_Init:	
  4407                           
  4408                           ;lcd.h: 64: Lcd_Port(0x00);
  4409                           
  4410                           ;incstack = 0
  4411                           ; Regs used in _Lcd_Init: [wreg+status,2+status,0+pclath+cstack]
  4412  0E84  3000               	movlw	0
  4413  0E85  120A  158A  2508  120A  158A  	fcall	_Lcd_Port
  4414                           
  4415                           ;lcd.h: 65: _delay((unsigned long)((50)*(4000000/4000.0)));
  4416  0E8A  3041               	movlw	65
  4417  0E8B  00F5               	movwf	??_Lcd_Init+1
  4418  0E8C  30EE               	movlw	238
  4419  0E8D  00F4               	movwf	??_Lcd_Init
  4420  0E8E                     u1807:	
  4421  0E8E  0BF4               	decfsz	??_Lcd_Init,f
  4422  0E8F  2E8E               	goto	u1807
  4423  0E90  0BF5               	decfsz	??_Lcd_Init+1,f
  4424  0E91  2E8E               	goto	u1807
  4425  0E92  0000               	nop
  4426                           
  4427                           ;lcd.h: 66: Lcd_Cmd(0x03);
  4428  0E93  3003               	movlw	3
  4429  0E94  120A  158A  2522  120A  158A  	fcall	_Lcd_Cmd
  4430                           
  4431                           ;lcd.h: 67: _delay((unsigned long)((20)*(4000000/4000.0)));
  4432  0E99  301A               	movlw	26
  4433  0E9A  00F5               	movwf	??_Lcd_Init+1
  4434  0E9B  30F8               	movlw	248
  4435  0E9C  00F4               	movwf	??_Lcd_Init
  4436  0E9D                     u1817:	
  4437  0E9D  0BF4               	decfsz	??_Lcd_Init,f
  4438  0E9E  2E9D               	goto	u1817
  4439  0E9F  0BF5               	decfsz	??_Lcd_Init+1,f
  4440  0EA0  2E9D               	goto	u1817
  4441  0EA1  0000               	nop
  4442                           
  4443                           ;lcd.h: 68: Lcd_Cmd(0x03);
  4444  0EA2  3003               	movlw	3
  4445  0EA3  120A  158A  2522  120A  158A  	fcall	_Lcd_Cmd
  4446                           
  4447                           ;lcd.h: 69: _delay((unsigned long)((25)*(4000000/4000.0)));
  4448  0EA8  3021               	movlw	33
  4449  0EA9  00F5               	movwf	??_Lcd_Init+1
  4450  0EAA  3076               	movlw	118
  4451  0EAB  00F4               	movwf	??_Lcd_Init
  4452  0EAC                     u1827:	
  4453  0EAC  0BF4               	decfsz	??_Lcd_Init,f
  4454  0EAD  2EAC               	goto	u1827
  4455  0EAE  0BF5               	decfsz	??_Lcd_Init+1,f
  4456  0EAF  2EAC               	goto	u1827
  4457  0EB0  0000               	nop
  4458                           
  4459                           ;lcd.h: 70: Lcd_Cmd(0x03);
  4460  0EB1  3003               	movlw	3
  4461  0EB2  120A  158A  2522  120A  158A  	fcall	_Lcd_Cmd
  4462                           
  4463                           ;lcd.h: 72: Lcd_Cmd(0x02);
  4464  0EB7  3002               	movlw	2
  4465  0EB8  120A  158A  2522  120A  158A  	fcall	_Lcd_Cmd
  4466                           
  4467                           ;lcd.h: 73: Lcd_Cmd(0x02);
  4468  0EBD  3002               	movlw	2
  4469  0EBE  120A  158A  2522  120A  158A  	fcall	_Lcd_Cmd
  4470                           
  4471                           ;lcd.h: 74: Lcd_Cmd(0x08);
  4472  0EC3  3008               	movlw	8
  4473  0EC4  120A  158A  2522  120A  158A  	fcall	_Lcd_Cmd
  4474                           
  4475                           ;lcd.h: 75: Lcd_Cmd(0x00);
  4476  0EC9  3000               	movlw	0
  4477  0ECA  120A  158A  2522  120A  158A  	fcall	_Lcd_Cmd
  4478                           
  4479                           ;lcd.h: 76: Lcd_Cmd(0x0C);
  4480  0ECF  300C               	movlw	12
  4481  0ED0  120A  158A  2522  120A  158A  	fcall	_Lcd_Cmd
  4482                           
  4483                           ;lcd.h: 77: Lcd_Cmd(0x00);
  4484  0ED5  3000               	movlw	0
  4485  0ED6  120A  158A  2522  120A  158A  	fcall	_Lcd_Cmd
  4486                           
  4487                           ;lcd.h: 78: Lcd_Cmd(0x06);
  4488  0EDB  3006               	movlw	6
  4489  0EDC  120A  158A  2522   	fcall	_Lcd_Cmd
  4490  0EDF  0008               	return
  4491  0EE0                     __end_of_Lcd_Init:	
  4492                           
  4493                           	psect	text13
  4494  0D22                     __ptext13:	
  4495 ;; *************** function _Lcd_Cmd *****************
  4496 ;; Defined at:
  4497 ;;		line 26 in file "lcd.h"
  4498 ;; Parameters:    Size  Location     Type
  4499 ;;  a               1    wreg     unsigned char 
  4500 ;; Auto vars:     Size  Location     Type
  4501 ;;  a               1    3[COMMON] unsigned char 
  4502 ;; Return value:  Size  Location     Type
  4503 ;;                  1    wreg      void 
  4504 ;; Registers used:
  4505 ;;		wreg, status,2, status,0, pclath, cstack
  4506 ;; Tracked objects:
  4507 ;;		On entry : 0/0
  4508 ;;		On exit  : 0/0
  4509 ;;		Unchanged: 0/0
  4510 ;; Data sizes:     COMMON   BANK0   BANK1   BANK3   BANK2
  4511 ;;      Params:         0       0       0       0       0
  4512 ;;      Locals:         1       0       0       0       0
  4513 ;;      Temps:          2       0       0       0       0
  4514 ;;      Totals:         3       0       0       0       0
  4515 ;;Total ram usage:        3 bytes
  4516 ;; Hardware stack levels used:    1
  4517 ;; Hardware stack levels required when called:    1
  4518 ;; This function calls:
  4519 ;;		_Lcd_Port
  4520 ;; This function is called by:
  4521 ;;		_Lcd_Set_Cursor
  4522 ;;		_Lcd_Init
  4523 ;;		_Lcd_Clear
  4524 ;;		_Lcd_Shift_Right
  4525 ;;		_Lcd_Shift_Left
  4526 ;; This function uses a non-reentrant model
  4527 ;;
  4528                           
  4529                           
  4530                           ;psect for function _Lcd_Cmd
  4531  0D22                     _Lcd_Cmd:	
  4532                           
  4533                           ;incstack = 0
  4534                           ; Regs used in _Lcd_Cmd: [wreg+status,2+status,0+pclath+cstack]
  4535                           ;Lcd_Cmd@a stored from wreg
  4536  0D22  00F3               	movwf	Lcd_Cmd@a
  4537                           
  4538                           ;lcd.h: 28: RD2 = 0;
  4539  0D23  1283               	bcf	3,5	;RP0=0, select bank0
  4540  0D24  1303               	bcf	3,6	;RP1=0, select bank0
  4541  0D25  1108               	bcf	8,2	;volatile
  4542                           
  4543                           ;lcd.h: 29: Lcd_Port(a);
  4544  0D26  0873               	movf	Lcd_Cmd@a,w
  4545  0D27  120A  158A  2508  120A  158A  	fcall	_Lcd_Port
  4546                           
  4547                           ;lcd.h: 30: RD3 = 1;
  4548  0D2C  1283               	bcf	3,5	;RP0=0, select bank0
  4549  0D2D  1303               	bcf	3,6	;RP1=0, select bank0
  4550  0D2E  1588               	bsf	8,3	;volatile
  4551                           
  4552                           ;lcd.h: 31: _delay((unsigned long)((40)*(4000000/4000.0)));
  4553  0D2F  3034               	movlw	52
  4554  0D30  00F2               	movwf	??_Lcd_Cmd+1
  4555  0D31  30F1               	movlw	241
  4556  0D32  00F1               	movwf	??_Lcd_Cmd
  4557  0D33                     u1837:	
  4558  0D33  0BF1               	decfsz	??_Lcd_Cmd,f
  4559  0D34  2D33               	goto	u1837
  4560  0D35  0BF2               	decfsz	??_Lcd_Cmd+1,f
  4561  0D36  2D33               	goto	u1837
  4562  0D37  2D38               	nop2
  4563                           
  4564                           ;lcd.h: 32: RD3 = 0;
  4565  0D38  1283               	bcf	3,5	;RP0=0, select bank0
  4566  0D39  1303               	bcf	3,6	;RP1=0, select bank0
  4567  0D3A  1188               	bcf	8,3	;volatile
  4568  0D3B  0008               	return
  4569  0D3C                     __end_of_Lcd_Cmd:	
  4570                           
  4571                           	psect	text14
  4572  0D08                     __ptext14:	
  4573 ;; *************** function _Lcd_Port *****************
  4574 ;; Defined at:
  4575 ;;		line 4 in file "lcd.h"
  4576 ;; Parameters:    Size  Location     Type
  4577 ;;  a               1    wreg     unsigned char 
  4578 ;; Auto vars:     Size  Location     Type
  4579 ;;  a               1    0[COMMON] unsigned char 
  4580 ;; Return value:  Size  Location     Type
  4581 ;;                  1    wreg      void 
  4582 ;; Registers used:
  4583 ;;		wreg
  4584 ;; Tracked objects:
  4585 ;;		On entry : 0/0
  4586 ;;		On exit  : 0/0
  4587 ;;		Unchanged: 0/0
  4588 ;; Data sizes:     COMMON   BANK0   BANK1   BANK3   BANK2
  4589 ;;      Params:         0       0       0       0       0
  4590 ;;      Locals:         1       0       0       0       0
  4591 ;;      Temps:          0       0       0       0       0
  4592 ;;      Totals:         1       0       0       0       0
  4593 ;;Total ram usage:        1 bytes
  4594 ;; Hardware stack levels used:    1
  4595 ;; This function calls:
  4596 ;;		Nothing
  4597 ;; This function is called by:
  4598 ;;		_Lcd_Cmd
  4599 ;;		_Lcd_Init
  4600 ;;		_Lcd_Write_Char
  4601 ;; This function uses a non-reentrant model
  4602 ;;
  4603                           
  4604                           
  4605                           ;psect for function _Lcd_Port
  4606  0D08                     _Lcd_Port:	
  4607                           
  4608                           ;incstack = 0
  4609                           ; Regs used in _Lcd_Port: [wreg]
  4610                           ;Lcd_Port@a stored from wreg
  4611  0D08  00F0               	movwf	Lcd_Port@a
  4612                           
  4613                           ;lcd.h: 6: if(a & 1)
  4614  0D09  1C70               	btfss	Lcd_Port@a,0
  4615  0D0A  2D0F               	goto	l89
  4616                           
  4617                           ;lcd.h: 7: RD4 = 1;
  4618  0D0B  1283               	bcf	3,5	;RP0=0, select bank0
  4619  0D0C  1303               	bcf	3,6	;RP1=0, select bank0
  4620  0D0D  1608               	bsf	8,4	;volatile
  4621  0D0E  2D12               	goto	l90
  4622  0D0F                     l89:	
  4623                           
  4624                           ;lcd.h: 8: else
  4625                           ;lcd.h: 9: RD4 = 0;
  4626  0D0F  1283               	bcf	3,5	;RP0=0, select bank0
  4627  0D10  1303               	bcf	3,6	;RP1=0, select bank0
  4628  0D11  1208               	bcf	8,4	;volatile
  4629  0D12                     l90:	
  4630                           
  4631                           ;lcd.h: 11: if(a & 2)
  4632  0D12  1CF0               	btfss	Lcd_Port@a,1
  4633  0D13  2D16               	goto	l91
  4634                           
  4635                           ;lcd.h: 12: RD5 = 1;
  4636  0D14  1688               	bsf	8,5	;volatile
  4637  0D15  2D17               	goto	l92
  4638  0D16                     l91:	
  4639                           
  4640                           ;lcd.h: 13: else
  4641                           ;lcd.h: 14: RD5 = 0;
  4642  0D16  1288               	bcf	8,5	;volatile
  4643  0D17                     l92:	
  4644                           
  4645                           ;lcd.h: 16: if(a & 4)
  4646  0D17  1D70               	btfss	Lcd_Port@a,2
  4647  0D18  2D1B               	goto	l93
  4648                           
  4649                           ;lcd.h: 17: RD6 = 1;
  4650  0D19  1708               	bsf	8,6	;volatile
  4651  0D1A  2D1C               	goto	l94
  4652  0D1B                     l93:	
  4653                           
  4654                           ;lcd.h: 18: else
  4655                           ;lcd.h: 19: RD6 = 0;
  4656  0D1B  1308               	bcf	8,6	;volatile
  4657  0D1C                     l94:	
  4658                           
  4659                           ;lcd.h: 21: if(a & 8)
  4660  0D1C  1DF0               	btfss	Lcd_Port@a,3
  4661  0D1D  2D20               	goto	l95
  4662                           
  4663                           ;lcd.h: 22: RD7 = 1;
  4664  0D1E  1788               	bsf	8,7	;volatile
  4665  0D1F  0008               	return
  4666  0D20                     l95:	
  4667                           
  4668                           ;lcd.h: 23: else
  4669                           ;lcd.h: 24: RD7 = 0;
  4670  0D20  1388               	bcf	8,7	;volatile
  4671  0D21  0008               	return
  4672  0D22                     __end_of_Lcd_Port:	
  4673  007E                     btemp	set	126	;btemp
  4674  007E                     wtemp	set	126
  4675  007E                     wtemp0	set	126
  4676  0080                     wtemp1	set	128
  4677  0082                     wtemp2	set	130
  4678  0084                     wtemp3	set	132
  4679  0086                     wtemp4	set	134
  4680  0088                     wtemp5	set	136
  4681  007F                     wtemp6	set	127
  4682  007E                     ttemp	set	126
  4683  007E                     ttemp0	set	126
  4684  0081                     ttemp1	set	129
  4685  0084                     ttemp2	set	132
  4686  0087                     ttemp3	set	135
  4687  007F                     ttemp4	set	127
  4688  007E                     ltemp	set	126
  4689  007E                     ltemp0	set	126
  4690  0082                     ltemp1	set	130
  4691  0086                     ltemp2	set	134
  4692  0080                     ltemp3	set	128


Data Sizes:
    Strings     14
    Constant    0
    Data        26
    BSS         0
    Persistent  0
    Stack       0

Auto Spaces:
    Space          Size  Autos    Used
    COMMON           14     14      14
    BANK0            80     73      73
    BANK1            80      0      26
    BANK3            96      0       0
    BANK2            96      0       0

Pointer List with Targets:

    utoa@buf	PTR unsigned char  size(1) Largest target is 20
		 -> main@s(BANK0[20]), 

    sp__utoa	PTR unsigned char  size(1) Largest target is 20
		 -> main@s(BANK0[20]), 

    itoa@buf	PTR unsigned char  size(1) Largest target is 20
		 -> main@s(BANK0[20]), 

    itoa@cp	PTR unsigned char  size(1) Largest target is 20
		 -> main@s(BANK0[20]), 

    sp__itoa	PTR unsigned char  size(1) Largest target is 20
		 -> main@s(BANK0[20]), 

    Lcd_Write_String@a	PTR unsigned char  size(2) Largest target is 20
		 -> main@s(BANK0[20]), STR_1(CODE[14]), 


Critical Paths under _main in COMMON

    _main->_itoa
    _remove_notice->_stepper
    _place_notice->_stepper
    _itoa->_utoa
    _utoa->___lwdiv
    _Lcd_Write_String->_Lcd_Write_Char
    _Lcd_Write_Char->_Lcd_Port
    _Lcd_Set_Cursor->_Lcd_Cmd
    _Lcd_Init->_Lcd_Cmd
    _Lcd_Cmd->_Lcd_Port

Critical Paths under _main in BANK0

    _remove_notice->_stepper
    _place_notice->_stepper
    _itoa->_utoa

Critical Paths under _main in BANK1

    None.

Critical Paths under _main in BANK3

    None.

Critical Paths under _main in BANK2

    None.

Call Graph Tables:

 ---------------------------------------------------------------------------------
 (Depth) Function   	        Calls       Base Space   Used Autos Params    Refs
 ---------------------------------------------------------------------------------
 (0) _main                                                60    60      0   15502
                                             13 BANK0     60    60      0
                           _Lcd_Init
                     _Lcd_Set_Cursor
                   _Lcd_Write_String
                               _itoa
                       _place_notice
                      _remove_notice
 ---------------------------------------------------------------------------------
 (1) _remove_notice                                        5     3      2    6138
                                              6 COMMON     5     3      2
                               _down
                            _stepper
 ---------------------------------------------------------------------------------
 (1) _place_notice                                         4     4      0    6032
                                              6 COMMON     4     4      0
                               _down
                            _stepper
 ---------------------------------------------------------------------------------
 (2) _stepper                                             19    16      3    5900
                                              0 COMMON     6     3      3
                                              0 BANK0     13    13      0
 ---------------------------------------------------------------------------------
 (2) _down                                                 0     0      0       0
 ---------------------------------------------------------------------------------
 (1) _itoa                                                 7     3      4    1370
                                             13 COMMON     1     1      0
                                              4 BANK0      6     2      4
                               _utoa
 ---------------------------------------------------------------------------------
 (2) _utoa                                                 9     5      4    1074
                                              8 COMMON     5     1      4
                                              0 BANK0      4     4      0
                            ___lwdiv
                            ___lwmod
 ---------------------------------------------------------------------------------
 (3) ___lwmod                                              6     2      4     265
                                              0 COMMON     6     2      4
 ---------------------------------------------------------------------------------
 (3) ___lwdiv                                              8     4      4     374
                                              0 COMMON     8     4      4
 ---------------------------------------------------------------------------------
 (1) _Lcd_Write_String                                     7     5      2     374
                                              5 COMMON     7     5      2
                     _Lcd_Write_Char
 ---------------------------------------------------------------------------------
 (2) _Lcd_Write_Char                                       4     4      0     178
                                              1 COMMON     4     4      0
                           _Lcd_Port
 ---------------------------------------------------------------------------------
 (1) _Lcd_Set_Cursor                                       7     6      1     486
                                              4 COMMON     7     6      1
                            _Lcd_Cmd
 ---------------------------------------------------------------------------------
 (1) _Lcd_Init                                             2     2      0     198
                                              4 COMMON     2     2      0
                            _Lcd_Cmd
                           _Lcd_Port
 ---------------------------------------------------------------------------------
 (2) _Lcd_Cmd                                              3     3      0     110
                                              1 COMMON     3     3      0
                           _Lcd_Port
 ---------------------------------------------------------------------------------
 (3) _Lcd_Port                                             1     1      0      88
                                              0 COMMON     1     1      0
 ---------------------------------------------------------------------------------
 Estimated maximum stack depth 3
 ---------------------------------------------------------------------------------

 Call Graph Graphs:

 _main (ROOT)
   _Lcd_Init
     _Lcd_Cmd
       _Lcd_Port
     _Lcd_Port
   _Lcd_Set_Cursor
     _Lcd_Cmd
       _Lcd_Port
   _Lcd_Write_String
     _Lcd_Write_Char
       _Lcd_Port
   _itoa
     _utoa
       ___lwdiv
       ___lwmod
   _place_notice
     _down
     _stepper
   _remove_notice
     _down
     _stepper

 Address spaces:
Name               Size   Autos  Total    Cost      Usage
BANK3               60      0       0       9        0.0%
BITBANK3            60      0       0       8        0.0%
SFR3                 0      0       0       4        0.0%
BITSFR3              0      0       0       4        0.0%
BANK2               60      0       0      11        0.0%
BITBANK2            60      0       0      10        0.0%
SFR2                 0      0       0       5        0.0%
BITSFR2              0      0       0       5        0.0%
BANK1               50      0      1A       7       32.5%
BITBANK1            50      0       0       6        0.0%
SFR1                 0      0       0       2        0.0%
BITSFR1              0      0       0       2        0.0%
BANK0               50     49      49       5       91.3%
BITBANK0            50      0       0       4        0.0%
SFR0                 0      0       0       1        0.0%
BITSFR0              0      0       0       1        0.0%
COMMON               E      E       E       1      100.0%
BITCOMMON            E      0       0       0        0.0%
CODE                 0      0       0       0        0.0%
DATA                 0      0      71      12        0.0%
ABS                  0      0      71       3        0.0%
NULL                 0      0       0       0        0.0%
STACK                0      0       0       2        0.0%
EEDATA             100      0       0       0        0.0%


Microchip Technology PIC Macro Assembler V1.37 build -260352376 
Symbol Table                                                                                   Mon Mar 06 09:24:13 2017

                        pc 0002                __CFG_CP$OFF 0000                         l90 0D12  
                       l91 0D16                         l92 0D17                         l93 0D1B  
                       l94 0D1C                         l95 0D20                         l89 0D0F  
                       fsr 0004                        l200 0CF4                        l143 01AF  
                      l135 01B0                        l147 0218                        l180 0F16  
                      l190 0FA3                        l192 0FAA                        l185 0F48  
                      l194 0FFB                        l188 0F52                        l198 0CED  
                      l552 0087                        _RA0 0028                        _RA1 0029  
                      _RB0 0030                        _RA2 002A                        _RB1 0031  
                      _RA3 002B                        _RC0 0038                        _RB2 0032  
                      _RB4 0034                        _RB5 0035                        _RE0 0048  
                      _RD2 0042                        _RB6 0036                        _RE1 0049  
                      _RD3 0043                        _RB7 0037                        _RE2 004A  
                      _RD4 0044                        _RD5 0045                        _RD6 0046  
                      _RD7 0047               __CFG_CPD$OFF 0000                        u805 0D5F  
                      u735 0DCC                        u825 0D70                        u755 0DD8  
                      u835 0D79                        u915 0F2F                        u765 0DE4  
                      u855 0D99                        u775 0DEE                        u935 0F5C  
                      u945 0FB4                        u895 0EFD                        fsr0 0004  
                      indf 0000               __CFG_FOSC$HS 0000               __CFG_LVP$OFF 0000  
                     l2015 0579                       l2135 074C                       l2055 061E  
                     l2303 01AA                       l2321 01F0                       l2305 013B  
                     l1543 0DED                       l1535 0DC9                       l1615 0EEC  
                     l2095 06B5                       l1537 0DD7                       l1561 0D6A  
                     l2185 0024                       l1625 0F1E                       l1617 0F1B  
                     l2353 025B                       l2337 022F                       l2257 0116  
                     l1547 0DF8                       l1627 0F4D                       l2347 023E  
                     l2339 0234                       l2291 017A                       l1565 0D78  
                     l1727 0E5F                       l1559 0D5C                       l1815 02FB  
                     l2279 0162                       l1753 0DFF                       l1569 0D83  
                     l1657 0FA8                       l1905 03F2                       l2297 0198  
                     l1845 0356                       l1689 0038                       l1785 02BB  
                     l1699 0059                       l1875 03B1                       l1975 04E2  
                     STR_1 0810                       u1005 0E46                       u1200 00E1  
                     u1025 0E6B                       u1315 022B                       u1190 00CC  
                     u1407 0472                       u1417 04A4                       u1507 0677  
                     u1427 04BD                       u1517 0690                       u1437 04FD  
                     u1357 00F6                       u1607 02D7                       u1527 06D0  
                     u1447 052F                       u1367 0120                       u1617 02EB  
                     u1537 0702                       u1457 0554                       u1377 0130  
                     u1707 0F68                       u1627 0326                       u1547 0727  
                     u1467 05A2                       u1387 01E1                       u1717 0F77  
                     u1637 033A                       u1557 0775                       u1477 05D4  
                     u1397 01F8                       u1807 0E8E                       u1727 0F86  
                     u1647 037F                       u1567 07A7                       u1487 05F9  
                     u1817 0E9D                       u1737 0F95                       u1657 0393  
                     u1577 07CC                       u1497 0645                       u1827 0EAC  
                     u1747 0FC0                       u1667 03CE                       u1587 0289  
                     u1837 0D33                       u1757 0FCF                       u1677 03E2  
                     u1597 029D                       u1767 0FDE                       u1687 041D  
                     u1777 0FED                       u1697 0431                       u1787 0DA9  
                     u1797 0DBA               __CFG_WRT$OFF 0000          ?_Lcd_Write_String 0075  
                     _main 009D                       _down 0CED                       _itoa 000B  
                     btemp 007E                       _utoa 0031              __CFG_BOREN$ON 0000  
                     ltemp 007E                       start 0000                       ttemp 007E  
       ??_Lcd_Write_String 0077                       wtemp 007E            __end_of_Lcd_Cmd 0D3C  
                    ?_main 0070                      ?_down 0070                      ?_itoa 0024  
            __CFG_WDTE$OFF 0000                      _CMCON 009C                      ?_utoa 0078  
          __end_of___lwdiv 0DFD            __end_of___lwmod 0D88    __size_of_Lcd_Set_Cursor 004A  
                    _TRISD 0088                      _TRISE 0089              __CFG_PWRTE$ON 0000  
                    main@n 0065                      main@p 0060                      main@q 0063  
                    main@s 0031                      main@x 0066                      main@y 005F  
                    main@z 0064                      pclath 000A                      ltemp0 007E  
                    ltemp1 0082                      ltemp2 0086                      ltemp3 0080  
                    ttemp0 007E                      ttemp1 0081                      ttemp2 0084  
                    ttemp3 0087                      ttemp4 007F                      utoa@c 0022  
                    utoa@v 0020                      status 0003            __end_of_stepper 1000  
                    wtemp0 007E                      wtemp1 0080                      wtemp2 0082  
                    wtemp3 0084                      wtemp4 0086                      wtemp5 0088  
                    wtemp6 007F           __end_of_Lcd_Init 0EE0           __end_of_Lcd_Port 0D22  
          __initialization 07F0               __end_of_main 0260               __end_of_down 0CF7  
             __end_of_itoa 0031               __end_of_utoa 009D                     ??_main 002D  
                   ??_down 0070                     ??_itoa 007D                     ??_utoa 007C  
                   _ADCON1 009F                  ??_Lcd_Cmd 0071    __size_of_Lcd_Write_Char 0039  
                   _TRISA0 0428                     _TRISA1 0429                     _TRISB0 0430  
                   _TRISA2 042A                     _TRISB1 0431                     _TRISA3 042B  
                   _TRISC0 0438                     _TRISB2 0432                     _TRISB4 0434  
                   _TRISB5 0435                     _TRISB6 0436                     _TRISB7 0437  
                ??___lwdiv 0074                  ??___lwmod 0074                     itoa@cp 0028  
                ??_stepper 0073            Lcd_Set_Cursor@a 0077            Lcd_Set_Cursor@b 0074  
          Lcd_Set_Cursor@y 0079            Lcd_Set_Cursor@z 0078      __end_of_remove_notice 07F0  
  __end_of__initialization 07FC              ?_place_notice 0070               stepper@x_147 0027  
           __pcstackCOMMON 0070               stepper@count 0021               __pidataBANK1 0D3C  
             stepper@motor 0020               stepper@state 002B         stepper@last_state1 002A  
           _Lcd_Set_Cursor 0E3A           stepper@direction 0070                  ?_Lcd_Init 0070  
                ?_Lcd_Port 0070             ??_place_notice 0076                 __pmaintext 009D  
__size_of_Lcd_Write_String 003D     __end_of_Lcd_Set_Cursor 0E84                 ??_Lcd_Init 0074  
               ??_Lcd_Port 0070                 __stringtab 0800             _Lcd_Write_Char 0D88  
                  _Lcd_Cmd 0D22                    ___lwdiv 0DC1                    ___lwmod 0D56  
          ?_Lcd_Set_Cursor 0074                    __ptext1 044C                    __ptext2 0260  
                  __ptext3 0EE0                    __ptext4 0CED                    __ptext5 000B  
                  __ptext6 0031                    __ptext7 0D56                    __ptext8 0DC1  
                  __ptext9 0DFD                    _stepper 0EE0     __end_of_Lcd_Write_Char 0DC1  
     end_of_initialization 07FC                    itoa@buf 0029                    itoa@val 0024  
                Lcd_Port@a 0070                    utoa@buf 0023                    utoa@val 0078  
     __end_of_place_notice 044C            ?_Lcd_Write_Char 0070          Lcd_Write_String@a 0075  
        Lcd_Write_String@i 007A                 main@n_buff 0045                 main@s_buff 0053  
            stepper@count1 0023              stepper@state1 002C           _Lcd_Write_String 0DFD  
      start_initialization 07F0          __size_of_Lcd_Init 005C          __size_of_Lcd_Port 001A  
               init_fetch0 0CF7                __pdataBANK1 00A0            Lcd_Write_Char@a 0074  
          Lcd_Write_Char@y 0073     __size_of_remove_notice 03A4                  ___latbits 0002  
            __pcstackBANK0 0020                stepper@size 0071          stepper@last_state 0029  
         remove_notice@var 0076            place_notice@num 0079                   ?_Lcd_Cmd 0070  
         ___lwdiv@dividend 0072           ??_Lcd_Set_Cursor 0075      __size_of_place_notice 01EC  
                 ?___lwdiv 0070                   ?___lwmod 0070                  __pstrings 0800  
         ___lwdiv@quotient 0075                   ?_stepper 0070              _remove_notice 044C  
             _place_notice 0260                   Lcd_Cmd@a 0073                  main@F1254 00A0  
                main@F1256 00AE                __stringbase 080F                  main@count 0067  
         ??_Lcd_Write_Char 0071                   _Lcd_Init 0E84                   _Lcd_Port 0D08  
           ?_remove_notice 0076   __end_of_Lcd_Write_String 0E3A           __size_of_Lcd_Cmd 001A  
         __size_of___lwdiv 003C           __size_of___lwmod 0032         __end_of__stringtab 0810  
          ___lwdiv@divisor 0070            ___lwdiv@counter 0077                   __ptext10 0D88  
                 __ptext11 0E3A                   __ptext12 0E84                   __ptext13 0D22  
                 __ptext14 0D08           __size_of_stepper 0120              __size_of_main 01C3  
            __size_of_down 000A              __size_of_itoa 0026              __size_of_utoa 006C  
                 main@buff 0061                   itoa@base 0026                   init_ram0 0CFB  
          ??_remove_notice 0078         Lcd_Write_Char@temp 0072           ___lwmod@dividend 0072  
                stringcode 080A         Lcd_Set_Cursor@temp 007A                   utoa@base 007A  
                 stepper@x 0025            ___lwmod@divisor 0070            ___lwmod@counter 0075  
                 stringdir 080A                   stringtab 0800  
